                        .module IO_control.c
                        .area text(rom, con, rel)
 0000                   .dbfile IO_control.c
                        .area data(ram, con, rel)
 0000                   .dbfile IO_control.c
 0000           _infoMal_teacher::
 0000                   .blkb 1
                        .area idata
 0000 00                .byte 0
                        .area data(ram, con, rel)
 0001                   .dbfile IO_control.c
 0001                   .blkb 1
                        .area idata
 0001 00                .byte 0
                        .area data(ram, con, rel)
 0002                   .dbfile IO_control.c
 0002                   .blkb 1
                        .area idata
 0002 00                .byte 0
                        .area data(ram, con, rel)
 0003                   .dbfile IO_control.c
 0003                   .blkb 1
                        .area idata
 0003 00                .byte 0
                        .area data(ram, con, rel)
 0004                   .dbfile IO_control.c
 0004                   .blkb 1
                        .area idata
 0004 00                .byte 0
                        .area data(ram, con, rel)
 0005                   .dbfile IO_control.c
 0005                   .dbfile E:\My_GTAProject\塔城设故板\Software\IO_control.c
 0005                   .dbstruct 0 5 .1
 0005                   .dbfield 0 dianfengshan c
 0005                   .dbfield 1 dianfanbao c
 0005                   .dbfield 2 weibolu c
 0005                   .dbfield 3 xiaodugui c
 0005                   .dbfield 4 xiyiji c
 0005                   .dbend
 0005                   .dbsym e infoMal_teacher _infoMal_teacher S[.1]
 0005           _infoMal_student::
 0005                   .blkb 1
                        .area idata
 0005 00                .byte 0
                        .area data(ram, con, rel)
 0006                   .dbfile E:\My_GTAProject\塔城设故板\Software\IO_control.c
 0006                   .blkb 1
                        .area idata
 0006 00                .byte 0
                        .area data(ram, con, rel)
 0007                   .dbfile E:\My_GTAProject\塔城设故板\Software\IO_control.c
 0007                   .blkb 1
                        .area idata
 0007 00                .byte 0
                        .area data(ram, con, rel)
 0008                   .dbfile E:\My_GTAProject\塔城设故板\Software\IO_control.c
 0008                   .blkb 1
                        .area idata
 0008 00                .byte 0
                        .area data(ram, con, rel)
 0009                   .dbfile E:\My_GTAProject\塔城设故板\Software\IO_control.c
 0009                   .blkb 1
                        .area idata
 0009 00                .byte 0
                        .area data(ram, con, rel)
 000A                   .dbfile E:\My_GTAProject\塔城设故板\Software\IO_control.c
 000A                   .dbsym e infoMal_student _infoMal_student S[.1]
 000A           _resIOJudge::
 000A                   .blkb 1
                        .area idata
 000A 00                .byte 0
                        .area data(ram, con, rel)
 000B                   .dbfile E:\My_GTAProject\塔城设故板\Software\IO_control.c
 000B                   .blkb 8
                        .area idata
 000B 0000000000000000  .byte 0,0,0,0,0,0,0,0
                        .area data(ram, con, rel)
 0013                   .dbfile E:\My_GTAProject\塔城设故板\Software\IO_control.c
 0013                   .dbsym e resIOJudge _resIOJudge A[9:9]c
                        .area text(rom, con, rel)
 0000                   .dbfile E:\My_GTAProject\塔城设故板\Software\IO_control.c
 0000                   .dbfunc e IOInit _IOInit fV
                        .even
 0000           _IOInit::
 0000                   .dbline -1
 0000                   .dbline 8
 0000           ; #include "IO_control.h"
 0000           ; 
 0000           ; infoMal infoMal_teacher = {0,0,0,0,0};
 0000           ; infoMal infoMal_student = {0,0,0,0,0};
 0000           ; 
 0000           ; uchar resIOJudge[9] = {0};
 0000           ; 
 0000           ; void IOInit(void){
 0000                   .dbline 10
 0000           ; 
 0000           ;       DDRA  |= 0x55;  DDRB  |= 0x55;  DDRC  |= 0x55;  DDRF  |= 0x05;
 0000 8AB3              in R24,0x1a
 0002 8565              ori R24,85
 0004 8ABB              out 0x1a,R24
 0006                   .dbline 10
 0006 87B3              in R24,0x17
 0008 8565              ori R24,85
 000A 87BB              out 0x17,R24
 000C                   .dbline 10
 000C 84B3              in R24,0x14
 000E 8565              ori R24,85
 0010 84BB              out 0x14,R24
 0012                   .dbline 10
 0012 80916100          lds R24,97
 0016 8560              ori R24,5
 0018 80936100          sts 97,R24
 001C                   .dbline 11
 001C           ;       PORTA |= 0x55;  PORTB |= 0x55;  PORTC |= 0x55;  PORTF |= 0x05;
 001C 8BB3              in R24,0x1b
 001E 8565              ori R24,85
 0020 8BBB              out 0x1b,R24
 0022                   .dbline 11
 0022 88B3              in R24,0x18
 0024 8565              ori R24,85
 0026 88BB              out 0x18,R24
 0028                   .dbline 11
 0028 85B3              in R24,0x15
 002A 8565              ori R24,85
 002C 85BB              out 0x15,R24
 002E                   .dbline 11
 002E 80916200          lds R24,98
 0032 8560              ori R24,5
 0034 80936200          sts 98,R24
 0038                   .dbline -2
 0038           L4:
 0038                   .dbline 0 ; func end
 0038 0895              ret
 003A                   .dbend
 003A                   .dbfunc e delayTest _delayTest fV
 003A           ;              a -> R16,R17
                        .even
 003A           _delayTest::
 003A                   .dbline -1
 003A                   .dbline 14
 003A           ; }
 003A           ; 
 003A           ; void delayTest(void){
 003A                   .dbline 16
 003A           ; 
 003A           ;        uint a = 65535;
 003A 0FEF              ldi R16,65535
 003C 1FEF              ldi R17,255
 003E 09C0              xjmp L7
 0040           L6:
 0040                   .dbline 17
 0040           ;        while(--a){
 0040                   .dbline 18
 0040           ;               asm("nop");asm("nop");asm("nop");
 0040 0000              nop
 0042                   .dbline 18
 0042 0000              nop
 0044                   .dbline 18
 0044 0000              nop
 0046                   .dbline 19
 0046           ;               asm("nop");asm("nop");asm("nop");       
 0046 0000              nop
 0048                   .dbline 19
 0048 0000              nop
 004A                   .dbline 19
 004A 0000              nop
 004C                   .dbline 20
 004C           ;               asm("nop");asm("nop");asm("nop");       
 004C 0000              nop
 004E                   .dbline 20
 004E 0000              nop
 0050                   .dbline 20
 0050 0000              nop
 0052                   .dbline 21
 0052           ;        }
 0052           L7:
 0052                   .dbline 17
 0052 C801              movw R24,R16
 0054 0197              sbiw R24,1
 0056 8C01              movw R16,R24
 0058 0030              cpi R16,0
 005A 0107              cpc R16,R17
 005C 89F7              brne L6
 005E           X0:
 005E                   .dbline -2
 005E           L5:
 005E                   .dbline 0 ; func end
 005E 0895              ret
 0060                   .dbsym r a 16 i
 0060                   .dbend
 0060                   .dbfunc e IO_test _IO_test fV
 0060           ;          count -> R22,R23
 0060           ;           loop -> R10
 0060           ;              a -> R20,R21
                        .even
 0060           _IO_test::
 0060 0E940000          xcall push_xgsetF03C
 0064                   .dbline -1
 0064                   .dbline 24
 0064           ; }
 0064           ; 
 0064           ; void IO_test(void){
 0064                   .dbline 26
 0064           ; 
 0064           ;       const uint count  = 5;
 0064 65E0              ldi R22,5
 0066 70E0              ldi R23,0
 0068                   .dbline 27
 0068           ;       uint a = count;
 0068 AB01              movw R20,R22
 006A                   .dbline 30
 006A           ;       uchar    loop;
 006A           ;       
 006A           ;       DDRA = DDRB = DDRC = DDRF = 0xff;
 006A 8FEF              ldi R24,255
 006C 80936100          sts 97,R24
 0070 84BB              out 0x14,R24
 0072 87BB              out 0x17,R24
 0074 8ABB              out 0x1a,R24
 0076 59C0              xjmp L11
 0078           L10:
 0078                   .dbline 32
 0078           ; 
 0078           ;       while(1){
 0078                   .dbline 34
 0078           ;  
 0078           ;               PORTA = 0x01;
 0078 81E0              ldi R24,1
 007A 8BBB              out 0x1b,R24
 007C                   .dbline 35
 007C           ;               for(loop = 0;loop < 5;loop++){
 007C AA24              clr R10
 007E 0EC0              xjmp L16
 0080           L13:
 0080                   .dbline 35
 0080                   .dbline 37
 0080           ;               
 0080           ;                       PORTA = PORTA << 2;
 0080 2BB2              in R2,0x1b
 0082 220C              lsl R2
 0084 220C              lsl R2
 0086 2BBA              out 0x1b,R2
 0088 01C0              xjmp L18
 008A           L17:
 008A                   .dbline 38
 008A           ;                       while(--a)delayTest();
 008A D7DF              xcall _delayTest
 008C           L18:
 008C                   .dbline 38
 008C CA01              movw R24,R20
 008E 0197              sbiw R24,1
 0090 AC01              movw R20,R24
 0092 8030              cpi R24,0
 0094 8907              cpc R24,R25
 0096 C9F7              brne L17
 0098           X1:
 0098                   .dbline 39
 0098           ;                       a = count;
 0098 AB01              movw R20,R22
 009A                   .dbline 40
 009A           ;               }
 009A           L14:
 009A                   .dbline 35
 009A A394              inc R10
 009C           L16:
 009C                   .dbline 35
 009C 8A2D              mov R24,R10
 009E 8530              cpi R24,5
 00A0 78F3              brlo L13
 00A2           X2:
 00A2                   .dbline 41
 00A2           ;               PORTB = 0x01;
 00A2 81E0              ldi R24,1
 00A4 88BB              out 0x18,R24
 00A6                   .dbline 42
 00A6           ;               for(loop = 0;loop < 5;loop++){
 00A6 AA24              clr R10
 00A8 0EC0              xjmp L23
 00AA           L20:
 00AA                   .dbline 42
 00AA                   .dbline 44
 00AA           ;               
 00AA           ;                       PORTB = PORTB << 2;
 00AA 28B2              in R2,0x18
 00AC 220C              lsl R2
 00AE 220C              lsl R2
 00B0 28BA              out 0x18,R2
 00B2 01C0              xjmp L25
 00B4           L24:
 00B4                   .dbline 45
 00B4           ;                       while(--a)delayTest();
 00B4 C2DF              xcall _delayTest
 00B6           L25:
 00B6                   .dbline 45
 00B6 CA01              movw R24,R20
 00B8 0197              sbiw R24,1
 00BA AC01              movw R20,R24
 00BC 8030              cpi R24,0
 00BE 8907              cpc R24,R25
 00C0 C9F7              brne L24
 00C2           X3:
 00C2                   .dbline 46
 00C2           ;                       a = count;
 00C2 AB01              movw R20,R22
 00C4                   .dbline 47
 00C4           ;               }       
 00C4           L21:
 00C4                   .dbline 42
 00C4 A394              inc R10
 00C6           L23:
 00C6                   .dbline 42
 00C6 8A2D              mov R24,R10
 00C8 8530              cpi R24,5
 00CA 78F3              brlo L20
 00CC           X4:
 00CC                   .dbline 48
 00CC           ;               PORTC = 0x01;
 00CC 81E0              ldi R24,1
 00CE 85BB              out 0x15,R24
 00D0                   .dbline 49
 00D0           ;               for(loop = 0;loop < 5;loop++){
 00D0 AA24              clr R10
 00D2 0FC0              xjmp L30
 00D4           L27:
 00D4                   .dbline 49
 00D4                   .dbline 51
 00D4           ;               
 00D4           ;                       PORTC = PORTC << 2;
 00D4 25B2              in R2,0x15
 00D6 220C              lsl R2
 00D8 220C              lsl R2
 00DA 25BA              out 0x15,R2
 00DC 01C0              xjmp L32
 00DE           L31:
 00DE                   .dbline 52
 00DE           ;                       while(--a)delayTest();
 00DE ADDF              xcall _delayTest
 00E0           L32:
 00E0                   .dbline 52
 00E0 CA01              movw R24,R20
 00E2 0197              sbiw R24,1
 00E4 6C01              movw R12,R24
 00E6 AC01              movw R20,R24
 00E8 8030              cpi R24,0
 00EA 8907              cpc R24,R25
 00EC C1F7              brne L31
 00EE           X5:
 00EE                   .dbline 53
 00EE           ;                       a = count;
 00EE AB01              movw R20,R22
 00F0                   .dbline 54
 00F0           ;               }       
 00F0           L28:
 00F0                   .dbline 49
 00F0 A394              inc R10
 00F2           L30:
 00F2                   .dbline 49
 00F2 8A2D              mov R24,R10
 00F4 8530              cpi R24,5
 00F6 70F3              brlo L27
 00F8           X6:
 00F8                   .dbline 55
 00F8           ;               PORTF = 0x01;
 00F8 81E0              ldi R24,1
 00FA 80936200          sts 98,R24
 00FE                   .dbline 56
 00FE           ;               for(loop = 0;loop < 5;loop++){
 00FE AA24              clr R10
 0100 11C0              xjmp L37
 0102           L34:
 0102                   .dbline 56
 0102                   .dbline 58
 0102           ;               
 0102           ;                       PORTF = PORTF << 2;
 0102 20906200          lds R2,98
 0106 220C              lsl R2
 0108 220C              lsl R2
 010A 20926200          sts 98,R2
 010E 01C0              xjmp L39
 0110           L38:
 0110                   .dbline 59
 0110           ;                       while(--a)delayTest();
 0110 94DF              xcall _delayTest
 0112           L39:
 0112                   .dbline 59
 0112 CA01              movw R24,R20
 0114 0197              sbiw R24,1
 0116 6C01              movw R12,R24
 0118 AC01              movw R20,R24
 011A 8030              cpi R24,0
 011C 8907              cpc R24,R25
 011E C1F7              brne L38
 0120           X7:
 0120                   .dbline 60
 0120           ;                       a = count;
 0120 AB01              movw R20,R22
 0122                   .dbline 61
 0122           ;               }       
 0122           L35:
 0122                   .dbline 56
 0122 A394              inc R10
 0124           L37:
 0124                   .dbline 56
 0124 8A2D              mov R24,R10
 0126 8530              cpi R24,5
 0128 60F3              brlo L34
 012A           X8:
 012A                   .dbline 62
 012A           ;       }
 012A           L11:
 012A                   .dbline 32
 012A A6CF              xjmp L10
 012C           X9:
 012C                   .dbline -2
 012C           L9:
 012C                   .dbline 0 ; func end
 012C 0C940000          xjmp pop_xgsetF03C
 0130                   .dbsym r count 22 i
 0130                   .dbsym r loop 10 c
 0130                   .dbsym r a 20 i
 0130                   .dbend
 0130                   .dbfunc e IOReinstate _IOReinstate fV
                        .even
 0130           _IOReinstate::
 0130                   .dbline -1
 0130                   .dbline 65
 0130           ; }
 0130           ; 
 0130           ; void IOReinstate(void){
 0130                   .dbline 67
 0130           ; 
 0130           ;       infoMal_teacher.dianfengshan =\
 0130 2224              clr R2
 0132 20920300          sts _infoMal_teacher+3,R2
 0136 20920400          sts _infoMal_teacher+4,R2
 013A 20920100          sts _infoMal_teacher+1,R2
 013E 20920200          sts _infoMal_teacher+2,R2
 0142 20920000          sts _infoMal_teacher,R2
 0146                   .dbline 74
 0146           ;       infoMal_teacher.weibolu =\
 0146           ;       infoMal_teacher.dianfanbao =\
 0146           ;       infoMal_teacher.xiyiji =\
 0146           ;       infoMal_teacher.xiaodugui \
 0146           ;       = 0;
 0146           ;       
 0146           ;       infoMal_student.dianfengshan =\
 0146 20920800          sts _infoMal_student+3,R2
 014A 20920900          sts _infoMal_student+4,R2
 014E 20920600          sts _infoMal_student+1,R2
 0152 20920700          sts _infoMal_student+2,R2
 0156 20920500          sts _infoMal_student,R2
 015A                   .dbline 81
 015A           ;       infoMal_student.weibolu =\
 015A           ;       infoMal_student.dianfanbao =\
 015A           ;       infoMal_student.xiyiji =\
 015A           ;       infoMal_student.xiaodugui \
 015A           ;       = 0;
 015A           ;       
 015A           ;       IOInit();
 015A                   .dbline -2
 015A           L41:
 015A                   .dbline 0 ; func end
 015A 52CF              xjmp _IOInit
 015C                   .dbend
 015C                   .dbfunc e OPJudje _OPJudje fV
 015C           ;             pt -> R22
 015C           ;           temp -> R10
 015C           ;           loop -> R20
 015C           ;           Base -> R12
 015C           ;              S -> R10
 015C           ;              T -> R14
                        .even
 015C           _OPJudje::
 015C 0E940000          xcall push_xgsetF0FC
 0160 A22E              mov R10,R18
 0162 E02E              mov R14,R16
 0164 CA84              ldd R12,y+10
 0166                   .dbline -1
 0166                   .dbline 84
 0166           ; }
 0166           ; 
 0166           ; void OPJudje(uchar T,uchar S,uchar Base){               //直接异或比较输出结果
 0166                   .dbline 87
 0166           ; 
 0166           ;       uchar temp,loop,pt;
 0166           ;       pt = 0;
 0166 6627              clr R22
 0168                   .dbline 89
 0168           ;       
 0168           ;       temp = T ^ S;
 0168 2E2C              mov R2,R14
 016A 2A24              eor R2,R10
 016C A22C              mov R10,R2
 016E                   .dbline 90
 016E           ;       for(loop = 0;loop < 8;loop ++){
 016E 4427              clr R20
 0170 15C0              xjmp L54
 0172           L51:
 0172                   .dbline 90
 0172                   .dbline 92
 0172           ;                        
 0172           ;               if((temp >> loop) & 0x01)resIOJudge[pt++] = Base + loop;
 0172 0A2D              mov R16,R10
 0174 142F              mov R17,R20
 0176 0E940000          xcall lsr8
 017A 802F              mov R24,R16
 017C 8170              andi R24,1
 017E 69F0              breq L55
 0180           X10:
 0180                   .dbline 92
 0180 262E              mov R2,R22
 0182 3324              clr R3
 0184 2101              movw R4,R2
 0186 6F5F              subi R22,255    ; addi 1
 0188 2C2C              mov R2,R12
 018A 240E              add R2,R20
 018C 80E0              ldi R24,<_resIOJudge
 018E 90E0              ldi R25,>_resIOJudge
 0190 E42D              mov R30,R4
 0192 FF27              clr R31
 0194 E80F              add R30,R24
 0196 F91F              adc R31,R25
 0198 2082              std z+0,R2
 019A           L55:
 019A                   .dbline 93
 019A           ;       }
 019A           L52:
 019A                   .dbline 90
 019A 4395              inc R20
 019C           L54:
 019C                   .dbline 90
 019C 4830              cpi R20,8
 019E 48F3              brlo L51
 01A0           X11:
 01A0                   .dbline -2
 01A0           L50:
 01A0                   .dbline 0 ; func end
 01A0 0C940000          xjmp pop_xgsetF0FC
 01A4                   .dbsym r pt 22 c
 01A4                   .dbsym r temp 10 c
 01A4                   .dbsym r loop 20 c
 01A4                   .dbsym r Base 12 c
 01A4                   .dbsym r S 10 c
 01A4                   .dbsym r T 14 c
 01A4                   .dbend
 01A4                   .dbfunc e dianfengshan_IO _dianfengshan_IO fV
 01A4           ;              a -> R20
 01A4           ;            obj -> R22
                        .even
 01A4           _dianfengshan_IO::
 01A4 0E940000          xcall push_xgsetF00C
 01A8 422F              mov R20,R18
 01AA 602F              mov R22,R16
 01AC                   .dbline -1
 01AC                   .dbline 102
 01AC           ;       
 01AC           ;       //resIOJudge[6] = temp;                                                          //测试比较结果输出
 01AC           ;       //resIOJudge[7] = infoMal_teacher.xiaodugui;
 01AC           ;       //resIOJudge[8] = infoMal_student.xiaodugui;
 01AC           ; }
 01AC           ; 
 01AC           ; //单字节从右到左分别表示设故编号
 01AC           ; //1-4号电风扇、5-6号电饭煲、7-9号微波炉、10-12号消毒柜、13-14号洗衣机
 01AC           ; void dianfengshan_IO(uchar obj,uchar a){         //1-4号电风扇
 01AC                   .dbline 104
 01AC           ; 
 01AC           ;       if(obj == 'T'){                                                    //教师端设故信息更新
 01AC 6435              cpi R22,84
 01AE 29F5              brne L58
 01B0           X12:
 01B0                   .dbline 104
 01B0                   .dbline 106
 01B0           ;       
 01B0           ;               infoMal_teacher.dianfengshan |= (1 << (a-1));
 01B0 142F              mov R17,R20
 01B2 1150              subi R17,1
 01B4 01E0              ldi R16,1
 01B6 0E940000          xcall lsl8
 01BA 20900000          lds R2,_infoMal_teacher
 01BE 202A              or R2,R16
 01C0 20920000          sts _infoMal_teacher,R2
 01C4                   .dbline 108
 01C4           ;               //IO Opreation here
 01C4           ;               switch(a){
 01C4 A42E              mov R10,R20
 01C6 BB24              clr R11
 01C8 C501              movw R24,R10
 01CA 8130              cpi R24,1
 01CC E0E0              ldi R30,0
 01CE 9E07              cpc R25,R30
 01D0 69F0              breq L63
 01D2           X13:
 01D2 8230              cpi R24,2
 01D4 E0E0              ldi R30,0
 01D6 9E07              cpc R25,R30
 01D8 59F0              breq L64
 01DA           X14:
 01DA 8330              cpi R24,3
 01DC E0E0              ldi R30,0
 01DE 9E07              cpc R25,R30
 01E0 49F0              breq L65
 01E2           X15:
 01E2 8430              cpi R24,4
 01E4 E0E0              ldi R30,0
 01E6 9E07              cpc R25,R30
 01E8 39F0              breq L66
 01EA           X16:
 01EA 07C0              xjmp L61
 01EC           L63:
 01EC                   .dbline 110
 01EC           ;       
 01EC           ;                       case  1:           PORTA &= (~0x01);  break;
 01EC D898              cbi 0x1b,0
 01EE                   .dbline 110
 01EE 05C0              xjmp L61
 01F0           L64:
 01F0                   .dbline 111
 01F0           ;                       case  2:           PORTA &= (~0x04);  break;
 01F0 DA98              cbi 0x1b,2
 01F2                   .dbline 111
 01F2 03C0              xjmp L61
 01F4           L65:
 01F4                   .dbline 112
 01F4           ;                       case  3:           PORTA &= (~0x10);  break;
 01F4 DC98              cbi 0x1b,4
 01F6                   .dbline 112
 01F6 01C0              xjmp L61
 01F8           L66:
 01F8                   .dbline 113
 01F8           ;                       case  4:           PORTA &= (~0x40);  break;
 01F8 DE98              cbi 0x1b,6
 01FA                   .dbline 113
 01FA                   .dbline 114
 01FA           ;                       default:           break;
 01FA           L61:
 01FA                   .dbline 116
 01FA           ;               }
 01FA           ;       } 
 01FA           L58:
 01FA                   .dbline 117
 01FA           ;       if(obj == 'S'){                                                   //学生端设故信息更新
 01FA 6335              cpi R22,83
 01FC 19F5              brne L67
 01FE           X17:
 01FE                   .dbline 117
 01FE                   .dbline 119
 01FE           ;       
 01FE           ;               infoMal_student.dianfengshan |= (1 << (a-1));
 01FE 142F              mov R17,R20
 0200 1150              subi R17,1
 0202 01E0              ldi R16,1
 0204 0E940000          xcall lsl8
 0208 20900500          lds R2,_infoMal_student
 020C 202A              or R2,R16
 020E 20920500          sts _infoMal_student,R2
 0212                   .dbline 121
 0212           ;               //IO Opreation here
 0212           ;               switch(a){
 0212 5527              clr R21
 0214 4130              cpi R20,1
 0216 E0E0              ldi R30,0
 0218 5E07              cpc R21,R30
 021A 69F0              breq L72
 021C           X18:
 021C 4230              cpi R20,2
 021E E0E0              ldi R30,0
 0220 5E07              cpc R21,R30
 0222 59F0              breq L73
 0224           X19:
 0224 4330              cpi R20,3
 0226 E0E0              ldi R30,0
 0228 5E07              cpc R21,R30
 022A 49F0              breq L74
 022C           X20:
 022C 4430              cpi R20,4
 022E E0E0              ldi R30,0
 0230 5E07              cpc R21,R30
 0232 39F0              breq L75
 0234           X21:
 0234 07C0              xjmp L70
 0236           L72:
 0236                   .dbline 123
 0236           ;       
 0236           ;                       case  1:           PORTA |= (0x01);  break;
 0236 D89A              sbi 0x1b,0
 0238                   .dbline 123
 0238 05C0              xjmp L70
 023A           L73:
 023A                   .dbline 124
 023A           ;                       case  2:           PORTA |= (0x04);  break;
 023A DA9A              sbi 0x1b,2
 023C                   .dbline 124
 023C 03C0              xjmp L70
 023E           L74:
 023E                   .dbline 125
 023E           ;                       case  3:           PORTA |= (0x10);  break;
 023E DC9A              sbi 0x1b,4
 0240                   .dbline 125
 0240 01C0              xjmp L70
 0242           L75:
 0242                   .dbline 126
 0242           ;                       case  4:           PORTA |= (0x40);  break;
 0242 DE9A              sbi 0x1b,6
 0244                   .dbline 126
 0244                   .dbline 127
 0244           ;                       default:           break;
 0244           L70:
 0244                   .dbline 129
 0244           ;               }       
 0244           ;       }
 0244           L67:
 0244                   .dbline -2
 0244           L57:
 0244                   .dbline 0 ; func end
 0244 0C940000          xjmp pop_xgsetF00C
 0248                   .dbsym r a 20 c
 0248                   .dbsym r obj 22 c
 0248                   .dbend
 0248                   .dbfunc e dianfanbao_IO _dianfanbao_IO fV
 0248           ;              a -> R20
 0248           ;            obj -> R22
                        .even
 0248           _dianfanbao_IO::
 0248 0E940000          xcall push_xgsetF00C
 024C 422F              mov R20,R18
 024E 602F              mov R22,R16
 0250                   .dbline -1
 0250                   .dbline 132
 0250           ; }
 0250           ; 
 0250           ; void dianfanbao_IO(uchar obj,uchar a){                   //5-7号电饭煲
 0250                   .dbline 134
 0250           ; 
 0250           ;       if(obj == 'T'){                                                    //教师端设故信息更新
 0250 6435              cpi R22,84
 0252 19F5              brne L77
 0254           X22:
 0254                   .dbline 134
 0254                   .dbline 136
 0254           ;       
 0254           ;               infoMal_teacher.dianfanbao |= (1 << (a-1));
 0254 142F              mov R17,R20
 0256 1150              subi R17,1
 0258 01E0              ldi R16,1
 025A 0E940000          xcall lsl8
 025E 20900100          lds R2,_infoMal_teacher+1
 0262 202A              or R2,R16
 0264 20920100          sts _infoMal_teacher+1,R2
 0268                   .dbline 138
 0268           ;               //IO Opreation here
 0268           ;               switch(a){
 0268 A42E              mov R10,R20
 026A BB24              clr R11
 026C C501              movw R24,R10
 026E 8130              cpi R24,1
 0270 E0E0              ldi R30,0
 0272 9E07              cpc R25,R30
 0274 69F0              breq L83
 0276           X23:
 0276 8230              cpi R24,2
 0278 E0E0              ldi R30,0
 027A 9E07              cpc R25,R30
 027C 59F0              breq L84
 027E           X24:
 027E 8330              cpi R24,3
 0280 E0E0              ldi R30,0
 0282 9E07              cpc R25,R30
 0284 49F0              breq L85
 0286           X25:
 0286 8430              cpi R24,4
 0288 E0E0              ldi R30,0
 028A 9E07              cpc R25,R30
 028C 31F0              breq L81
 028E           X26:
 028E 05C0              xjmp L81
 0290           L83:
 0290                   .dbline 140
 0290           ;       
 0290           ;                       case  1:           PORTB &= (~0x01);  break;
 0290 C098              cbi 0x18,0
 0292                   .dbline 140
 0292 03C0              xjmp L81
 0294           L84:
 0294                   .dbline 141
 0294           ;                       case  2:           PORTB &= (~0x04);  break;
 0294 C298              cbi 0x18,2
 0296                   .dbline 141
 0296 01C0              xjmp L81
 0298           L85:
 0298                   .dbline 142
 0298           ;                       case  3:           PORTB &= (~0x10);  break;
 0298 C498              cbi 0x18,4
 029A                   .dbline 142
 029A                   .dbline 143
 029A           ;                       case  4:           break;
 029A                   .dbline 144
 029A           ;                       default:           break;
 029A           L81:
 029A                   .dbline 146
 029A           ;               }
 029A           ;       }       
 029A           L77:
 029A                   .dbline 147
 029A           ;       if(obj == 'S'){                                                    //学生端设故信息更新
 029A 6335              cpi R22,83
 029C E9F4              brne L87
 029E           X27:
 029E                   .dbline 147
 029E                   .dbline 149
 029E           ;       
 029E           ;               infoMal_student.dianfanbao |= (1 << (a-1));
 029E 142F              mov R17,R20
 02A0 1150              subi R17,1
 02A2 01E0              ldi R16,1
 02A4 0E940000          xcall lsl8
 02A8 20900600          lds R2,_infoMal_student+1
 02AC 202A              or R2,R16
 02AE 20920600          sts _infoMal_student+1,R2
 02B2                   .dbline 151
 02B2           ;               //IO Opreation here
 02B2           ;               switch(a){
 02B2 5527              clr R21
 02B4 4130              cpi R20,1
 02B6 E0E0              ldi R30,0
 02B8 5E07              cpc R21,R30
 02BA 49F0              breq L93
 02BC           X28:
 02BC 4230              cpi R20,2
 02BE E0E0              ldi R30,0
 02C0 5E07              cpc R21,R30
 02C2 39F0              breq L94
 02C4           X29:
 02C4 4330              cpi R20,3
 02C6 E0E0              ldi R30,0
 02C8 5E07              cpc R21,R30
 02CA 29F0              breq L95
 02CC           X30:
 02CC 05C0              xjmp L91
 02CE           L93:
 02CE                   .dbline 153
 02CE           ;       
 02CE           ;                       case  1:           PORTB |= (0x01);  break;
 02CE C09A              sbi 0x18,0
 02D0                   .dbline 153
 02D0 03C0              xjmp L91
 02D2           L94:
 02D2                   .dbline 154
 02D2           ;                       case  2:           PORTB |= (0x04);  break;
 02D2 C29A              sbi 0x18,2
 02D4                   .dbline 154
 02D4 01C0              xjmp L91
 02D6           L95:
 02D6                   .dbline 155
 02D6           ;                       case  3:           PORTB |= (0x10);  break;
 02D6 C49A              sbi 0x18,4
 02D8                   .dbline 155
 02D8                   .dbline 156
 02D8           ;                       default:           break;
 02D8           L91:
 02D8                   .dbline 158
 02D8           ;               }
 02D8           ;       }       
 02D8           L87:
 02D8                   .dbline -2
 02D8           L76:
 02D8                   .dbline 0 ; func end
 02D8 0C940000          xjmp pop_xgsetF00C
 02DC                   .dbsym r a 20 c
 02DC                   .dbsym r obj 22 c
 02DC                   .dbend
 02DC                   .dbfunc e weibolu_IO _weibolu_IO fV
 02DC           ;              a -> R20
 02DC           ;            obj -> R22
                        .even
 02DC           _weibolu_IO::
 02DC 0E940000          xcall push_xgsetF00C
 02E0 422F              mov R20,R18
 02E2 602F              mov R22,R16
 02E4                   .dbline -1
 02E4                   .dbline 161
 02E4           ; }
 02E4           ; 
 02E4           ; void weibolu_IO(uchar obj,uchar a){                      //8-9号微波炉
 02E4                   .dbline 163
 02E4           ; 
 02E4           ;       if(obj == 'T'){                                                    //教师端设故信息更新
 02E4 6435              cpi R22,84
 02E6 C9F4              brne L97
 02E8           X31:
 02E8                   .dbline 163
 02E8                   .dbline 165
 02E8           ;       
 02E8           ;               infoMal_teacher.weibolu |= (1 << (a-1));
 02E8 142F              mov R17,R20
 02EA 1150              subi R17,1
 02EC 01E0              ldi R16,1
 02EE 0E940000          xcall lsl8
 02F2 20900200          lds R2,_infoMal_teacher+2
 02F6 202A              or R2,R16
 02F8 20920200          sts _infoMal_teacher+2,R2
 02FC                   .dbline 167
 02FC           ;               //IO Opreation here
 02FC           ;               switch(a){
 02FC A42E              mov R10,R20
 02FE BB24              clr R11
 0300 C501              movw R24,R10
 0302 8130              cpi R24,1
 0304 E0E0              ldi R30,0
 0306 9E07              cpc R25,R30
 0308 29F0              breq L103
 030A           X32:
 030A 8230              cpi R24,2
 030C E0E0              ldi R30,0
 030E 9E07              cpc R25,R30
 0310 19F0              breq L104
 0312           X33:
 0312 03C0              xjmp L101
 0314           L103:
 0314                   .dbline 169
 0314           ;       
 0314           ;                       case  1:           PORTB &= (~0x40);  break;
 0314 C698              cbi 0x18,6
 0316                   .dbline 169
 0316 01C0              xjmp L101
 0318           L104:
 0318                   .dbline 170
 0318           ;                       case  2:           PORTC &= (~0x01);  break;
 0318 A898              cbi 0x15,0
 031A                   .dbline 170
 031A                   .dbline 171
 031A           ;                       default:           break;
 031A           L101:
 031A                   .dbline 173
 031A           ;               }
 031A           ;       }       
 031A           L97:
 031A                   .dbline 174
 031A           ;       if(obj == 'S'){                                                    //学生端设故信息更新
 031A 6335              cpi R22,83
 031C B9F4              brne L105
 031E           X34:
 031E                   .dbline 174
 031E                   .dbline 176
 031E           ;       
 031E           ;               infoMal_student.weibolu |= (1 << (a-1));
 031E 142F              mov R17,R20
 0320 1150              subi R17,1
 0322 01E0              ldi R16,1
 0324 0E940000          xcall lsl8
 0328 20900700          lds R2,_infoMal_student+2
 032C 202A              or R2,R16
 032E 20920700          sts _infoMal_student+2,R2
 0332                   .dbline 178
 0332           ;               //IO Opreation here
 0332           ;               switch(a){
 0332 5527              clr R21
 0334 4130              cpi R20,1
 0336 E0E0              ldi R30,0
 0338 5E07              cpc R21,R30
 033A 29F0              breq L111
 033C           X35:
 033C 4230              cpi R20,2
 033E E0E0              ldi R30,0
 0340 5E07              cpc R21,R30
 0342 19F0              breq L112
 0344           X36:
 0344 03C0              xjmp L109
 0346           L111:
 0346                   .dbline 180
 0346           ;       
 0346           ;                       case  1:           PORTB |= (0x40);  break;
 0346 C69A              sbi 0x18,6
 0348                   .dbline 180
 0348 01C0              xjmp L109
 034A           L112:
 034A                   .dbline 181
 034A           ;                       case  2:           PORTC |= (0x01);  break;
 034A A89A              sbi 0x15,0
 034C                   .dbline 181
 034C                   .dbline 182
 034C           ;                       default:           break;
 034C           L109:
 034C                   .dbline 184
 034C           ;               }
 034C           ;       }       
 034C           L105:
 034C                   .dbline -2
 034C           L96:
 034C                   .dbline 0 ; func end
 034C 0C940000          xjmp pop_xgsetF00C
 0350                   .dbsym r a 20 c
 0350                   .dbsym r obj 22 c
 0350                   .dbend
 0350                   .dbfunc e xiaodugui_IO _xiaodugui_IO fV
 0350           ;              a -> R20
 0350           ;            obj -> R22
                        .even
 0350           _xiaodugui_IO::
 0350 0E940000          xcall push_xgsetF00C
 0354 422F              mov R20,R18
 0356 602F              mov R22,R16
 0358                   .dbline -1
 0358                   .dbline 187
 0358           ; }
 0358           ; 
 0358           ; void xiaodugui_IO(uchar obj,uchar a){            //10-11号消毒柜
 0358                   .dbline 189
 0358           ; 
 0358           ;       if(obj == 'T'){                                                    //教师端设故信息更新
 0358 6435              cpi R22,84
 035A C9F4              brne L114
 035C           X37:
 035C                   .dbline 189
 035C                   .dbline 191
 035C           ;       
 035C           ;               infoMal_teacher.xiaodugui |= (1 << (a-1));
 035C 142F              mov R17,R20
 035E 1150              subi R17,1
 0360 01E0              ldi R16,1
 0362 0E940000          xcall lsl8
 0366 20900300          lds R2,_infoMal_teacher+3
 036A 202A              or R2,R16
 036C 20920300          sts _infoMal_teacher+3,R2
 0370                   .dbline 193
 0370           ;               //IO Opreation here
 0370           ;               switch(a){
 0370 A42E              mov R10,R20
 0372 BB24              clr R11
 0374 C501              movw R24,R10
 0376 8130              cpi R24,1
 0378 E0E0              ldi R30,0
 037A 9E07              cpc R25,R30
 037C 29F0              breq L120
 037E           X38:
 037E 8230              cpi R24,2
 0380 E0E0              ldi R30,0
 0382 9E07              cpc R25,R30
 0384 19F0              breq L121
 0386           X39:
 0386 03C0              xjmp L118
 0388           L120:
 0388                   .dbline 195
 0388           ;       
 0388           ;                       case  1:           PORTC &= (~0x04);  break;
 0388 AA98              cbi 0x15,2
 038A                   .dbline 195
 038A 01C0              xjmp L118
 038C           L121:
 038C                   .dbline 196
 038C           ;                       case  2:           PORTC &= (~0x10);  break;
 038C AC98              cbi 0x15,4
 038E                   .dbline 196
 038E                   .dbline 197
 038E           ;                       default:           break;
 038E           L118:
 038E                   .dbline 199
 038E           ;               }
 038E           ;       } 
 038E           L114:
 038E                   .dbline 200
 038E           ;       if(obj == 'S'){                                                    //学生端设故信息更新
 038E 6335              cpi R22,83
 0390 B9F4              brne L122
 0392           X40:
 0392                   .dbline 200
 0392                   .dbline 202
 0392           ;       
 0392           ;               infoMal_student.xiaodugui |= (1 << (a-1));
 0392 142F              mov R17,R20
 0394 1150              subi R17,1
 0396 01E0              ldi R16,1
 0398 0E940000          xcall lsl8
 039C 20900800          lds R2,_infoMal_student+3
 03A0 202A              or R2,R16
 03A2 20920800          sts _infoMal_student+3,R2
 03A6                   .dbline 204
 03A6           ;               //IO Opreation here
 03A6           ;               switch(a){
 03A6 5527              clr R21
 03A8 4130              cpi R20,1
 03AA E0E0              ldi R30,0
 03AC 5E07              cpc R21,R30
 03AE 29F0              breq L128
 03B0           X41:
 03B0 4230              cpi R20,2
 03B2 E0E0              ldi R30,0
 03B4 5E07              cpc R21,R30
 03B6 19F0              breq L129
 03B8           X42:
 03B8 03C0              xjmp L126
 03BA           L128:
 03BA                   .dbline 206
 03BA           ;       
 03BA           ;                       case  1:           PORTC |= (0x04);  break;
 03BA AA9A              sbi 0x15,2
 03BC                   .dbline 206
 03BC 01C0              xjmp L126
 03BE           L129:
 03BE                   .dbline 207
 03BE           ;                       case  2:           PORTC |= (0x10);  break;
 03BE AC9A              sbi 0x15,4
 03C0                   .dbline 207
 03C0                   .dbline 208
 03C0           ;                       default:           break;
 03C0           L126:
 03C0                   .dbline 210
 03C0           ;               }
 03C0           ;       }       
 03C0           L122:
 03C0                   .dbline -2
 03C0           L113:
 03C0                   .dbline 0 ; func end
 03C0 0C940000          xjmp pop_xgsetF00C
 03C4                   .dbsym r a 20 c
 03C4                   .dbsym r obj 22 c
 03C4                   .dbend
 03C4                   .dbfunc e xiyiji_IO _xiyiji_IO fV
 03C4           ;              a -> R20
 03C4           ;            obj -> R22
                        .even
 03C4           _xiyiji_IO::
 03C4 0E940000          xcall push_xgsetF00C
 03C8 422F              mov R20,R18
 03CA 602F              mov R22,R16
 03CC                   .dbline -1
 03CC                   .dbline 213
 03CC           ; }
 03CC           ; 
 03CC           ; void xiyiji_IO(uchar obj,uchar a){                       //12-14号洗衣机
 03CC                   .dbline 215
 03CC           ; 
 03CC           ;       if(obj == 'T'){                                                    //教师端设故信息更新
 03CC 6435              cpi R22,84
 03CE 39F5              brne L131
 03D0           X43:
 03D0                   .dbline 215
 03D0                   .dbline 217
 03D0           ;       
 03D0           ;               infoMal_teacher.xiyiji |= (1 << (a-1));
 03D0 142F              mov R17,R20
 03D2 1150              subi R17,1
 03D4 01E0              ldi R16,1
 03D6 0E940000          xcall lsl8
 03DA 20900400          lds R2,_infoMal_teacher+4
 03DE 202A              or R2,R16
 03E0 20920400          sts _infoMal_teacher+4,R2
 03E4                   .dbline 219
 03E4           ;               //IO Opreation here
 03E4           ;               switch(a){
 03E4 A42E              mov R10,R20
 03E6 BB24              clr R11
 03E8 C501              movw R24,R10
 03EA 8130              cpi R24,1
 03EC E0E0              ldi R30,0
 03EE 9E07              cpc R25,R30
 03F0 49F0              breq L137
 03F2           X44:
 03F2 8230              cpi R24,2
 03F4 E0E0              ldi R30,0
 03F6 9E07              cpc R25,R30
 03F8 39F0              breq L138
 03FA           X45:
 03FA 8330              cpi R24,3
 03FC E0E0              ldi R30,0
 03FE 9E07              cpc R25,R30
 0400 49F0              breq L139
 0402           X46:
 0402 0DC0              xjmp L135
 0404           L137:
 0404                   .dbline 221
 0404           ;       
 0404           ;                       case  1:           PORTC &= (~0x40);  break;
 0404 AE98              cbi 0x15,6
 0406                   .dbline 221
 0406 0BC0              xjmp L135
 0408           L138:
 0408                   .dbline 222
 0408           ;                       case  2:           PORTF &= (~0x01);  break;
 0408 80916200          lds R24,98
 040C 8E7F              andi R24,254
 040E 80936200          sts 98,R24
 0412                   .dbline 222
 0412 05C0              xjmp L135
 0414           L139:
 0414                   .dbline 223
 0414           ;                       case  3:           PORTF &= (~0x04);  break;
 0414 80916200          lds R24,98
 0418 8B7F              andi R24,251
 041A 80936200          sts 98,R24
 041E                   .dbline 223
 041E                   .dbline 224
 041E           ;                       default:           break;
 041E           L135:
 041E                   .dbline 226
 041E           ;               }
 041E           ;       }       
 041E           L131:
 041E                   .dbline 227
 041E           ;       if(obj == 'S'){                                                    //学生端设故信息更新
 041E 6335              cpi R22,83
 0420 29F5              brne L140
 0422           X47:
 0422                   .dbline 227
 0422                   .dbline 229
 0422           ;       
 0422           ;               infoMal_student.xiyiji |= (1 << (a-1));
 0422 142F              mov R17,R20
 0424 1150              subi R17,1
 0426 01E0              ldi R16,1
 0428 0E940000          xcall lsl8
 042C 20900900          lds R2,_infoMal_student+4
 0430 202A              or R2,R16
 0432 20920900          sts _infoMal_student+4,R2
 0436                   .dbline 231
 0436           ;               //IO Opreation here
 0436           ;               switch(a){
 0436 5527              clr R21
 0438 4130              cpi R20,1
 043A E0E0              ldi R30,0
 043C 5E07              cpc R21,R30
 043E 49F0              breq L146
 0440           X48:
 0440 4230              cpi R20,2
 0442 E0E0              ldi R30,0
 0444 5E07              cpc R21,R30
 0446 39F0              breq L147
 0448           X49:
 0448 4330              cpi R20,3
 044A E0E0              ldi R30,0
 044C 5E07              cpc R21,R30
 044E 49F0              breq L148
 0450           X50:
 0450 0DC0              xjmp L144
 0452           L146:
 0452                   .dbline 233
 0452           ;       
 0452           ;                       case  1:           PORTC |= (0x40);  break;
 0452 AE9A              sbi 0x15,6
 0454                   .dbline 233
 0454 0BC0              xjmp L144
 0456           L147:
 0456                   .dbline 234
 0456           ;                       case  2:           PORTF |= (0x01);  break;
 0456 80916200          lds R24,98
 045A 8160              ori R24,1
 045C 80936200          sts 98,R24
 0460                   .dbline 234
 0460 05C0              xjmp L144
 0462           L148:
 0462                   .dbline 235
 0462           ;                       case  3:           PORTF |= (0x04);  break;
 0462 80916200          lds R24,98
 0466 8460              ori R24,4
 0468 80936200          sts 98,R24
 046C                   .dbline 235
 046C                   .dbline 236
 046C           ;                       default:           break;
 046C           L144:
 046C                   .dbline 238
 046C           ;               }
 046C           ;       }       
 046C           L140:
 046C                   .dbline -2
 046C           L130:
 046C                   .dbline 0 ; func end
 046C 0C940000          xjmp pop_xgsetF00C
 0470                   .dbsym r a 20 c
 0470                   .dbsym r obj 22 c
 0470                   .dbend
 0470           ; }
