                        .module user_main.c
                        .area text(rom, con, rel)
 0000                   .dbfile user_main.c
                        .area data(ram, con, rel)
 0000                   .dbfile user_main.c
 0000           _ITFR_CMD::
 0000                   .blkw 1
                        .area idata
 0000 8D04              .word L4
                        .area data(ram, con, rel)
 0002                   .dbfile user_main.c
 0002                   .blkw 1
                        .area idata
 0002 7004              .word L5
                        .area data(ram, con, rel)
 0004                   .dbfile user_main.c
 0004                   .blkw 1
                        .area idata
 0004 5304              .word L6
                        .area data(ram, con, rel)
 0006                   .dbfile user_main.c
 0006                   .blkw 1
                        .area idata
 0006 3604              .word L7
                        .area data(ram, con, rel)
 0008                   .dbfile user_main.c
 0008                   .blkw 1
                        .area idata
 0008 1604              .word L8
                        .area data(ram, con, rel)
 000A                   .dbfile user_main.c
 000A                   .blkw 1
                        .area idata
 000A F603              .word L9
                        .area data(ram, con, rel)
 000C                   .dbfile user_main.c
 000C                   .blkw 1
                        .area idata
 000C D603              .word L10
                        .area data(ram, con, rel)
 000E                   .dbfile user_main.c
 000E                   .blkw 1
                        .area idata
 000E B903              .word L11
                        .area data(ram, con, rel)
 0010                   .dbfile user_main.c
 0010                   .blkw 1
                        .area idata
 0010 9C03              .word L12
                        .area data(ram, con, rel)
 0012                   .dbfile user_main.c
 0012                   .blkw 1
                        .area idata
 0012 7D03              .word L13
                        .area data(ram, con, rel)
 0014                   .dbfile user_main.c
 0014                   .blkw 1
                        .area idata
 0014 4303              .word L14
                        .area data(ram, con, rel)
 0016                   .dbfile user_main.c
 0016                   .blkw 1
                        .area idata
 0016 2703              .word L15
                        .area data(ram, con, rel)
 0018                   .dbfile user_main.c
 0018                   .blkw 1
                        .area idata
 0018 0B03              .word L16
                        .area data(ram, con, rel)
 001A                   .dbfile user_main.c
 001A                   .blkb 2
                        .area idata
 001A 0000              .byte 0,0
                        .area data(ram, con, rel)
 001C                   .dbfile user_main.c
 001C                   .dbfile C:\Users\Administrator\Desktop\塔城设故板\Software\user_main.c
 001C                   .dbsym e ITFR_CMD _ITFR_CMD A[28:14]pc
 001C           _WIFI_CMD::
 001C                   .blkw 1
                        .area idata
 001C FE02              .word L17
                        .area data(ram, con, rel)
 001E                   .dbfile C:\Users\Administrator\Desktop\塔城设故板\Software\user_main.c
 001E                   .blkw 1
                        .area idata
 001E F302              .word L18
                        .area data(ram, con, rel)
 0020                   .dbfile C:\Users\Administrator\Desktop\塔城设故板\Software\user_main.c
 0020                   .blkw 1
                        .area idata
 0020 C802              .word L19
                        .area data(ram, con, rel)
 0022                   .dbfile C:\Users\Administrator\Desktop\塔城设故板\Software\user_main.c
 0022                   .blkw 1
                        .area idata
 0022 BD02              .word L20
                        .area data(ram, con, rel)
 0024                   .dbfile C:\Users\Administrator\Desktop\塔城设故板\Software\user_main.c
 0024                   .blkw 1
                        .area idata
 0024 8F02              .word L21
                        .area data(ram, con, rel)
 0026                   .dbfile C:\Users\Administrator\Desktop\塔城设故板\Software\user_main.c
 0026                   .blkw 1
                        .area idata
 0026 6802              .word L22
                        .area data(ram, con, rel)
 0028                   .dbfile C:\Users\Administrator\Desktop\塔城设故板\Software\user_main.c
 0028                   .blkw 1
                        .area idata
 0028 5702              .word L23
                        .area data(ram, con, rel)
 002A                   .dbfile C:\Users\Administrator\Desktop\塔城设故板\Software\user_main.c
 002A                   .blkw 1
                        .area idata
 002A 4802              .word L24
                        .area data(ram, con, rel)
 002C                   .dbfile C:\Users\Administrator\Desktop\塔城设故板\Software\user_main.c
 002C                   .blkw 1
                        .area idata
 002C 3102              .word L25
                        .area data(ram, con, rel)
 002E                   .dbfile C:\Users\Administrator\Desktop\塔城设故板\Software\user_main.c
 002E                   .blkw 1
                        .area idata
 002E 1E02              .word L26
                        .area data(ram, con, rel)
 0030                   .dbfile C:\Users\Administrator\Desktop\塔城设故板\Software\user_main.c
 0030                   .blkw 1
                        .area idata
 0030 0F02              .word L27
                        .area data(ram, con, rel)
 0032                   .dbfile C:\Users\Administrator\Desktop\塔城设故板\Software\user_main.c
 0032                   .blkw 1
                        .area idata
 0032 0202              .word L28
                        .area data(ram, con, rel)
 0034                   .dbfile C:\Users\Administrator\Desktop\塔城设故板\Software\user_main.c
 0034                   .blkw 1
                        .area idata
 0034 EF01              .word L29
                        .area data(ram, con, rel)
 0036                   .dbfile C:\Users\Administrator\Desktop\塔城设故板\Software\user_main.c
 0036                   .blkw 1
                        .area idata
 0036 DD01              .word L30
                        .area data(ram, con, rel)
 0038                   .dbfile C:\Users\Administrator\Desktop\塔城设故板\Software\user_main.c
 0038                   .blkw 1
                        .area idata
 0038 C701              .word L31
                        .area data(ram, con, rel)
 003A                   .dbfile C:\Users\Administrator\Desktop\塔城设故板\Software\user_main.c
 003A                   .blkw 1
                        .area idata
 003A B701              .word L32
                        .area data(ram, con, rel)
 003C                   .dbfile C:\Users\Administrator\Desktop\塔城设故板\Software\user_main.c
 003C                   .blkw 1
                        .area idata
 003C AB01              .word L33
                        .area data(ram, con, rel)
 003E                   .dbfile C:\Users\Administrator\Desktop\塔城设故板\Software\user_main.c
 003E                   .dbsym e WIFI_CMD _WIFI_CMD A[34:17]pc
 003E           _cntConfirm::
 003E                   .blkb 2
                        .area idata
 003E 5A04              .byte 'Z,4
                        .area data(ram, con, rel)
 0040                   .dbfile C:\Users\Administrator\Desktop\塔城设故板\Software\user_main.c
 0040                   .blkb 2
                        .area idata
 0040 0340              .byte 3,64
                        .area data(ram, con, rel)
 0042                   .dbfile C:\Users\Administrator\Desktop\塔城设故板\Software\user_main.c
 0042                   .blkb 2
                        .area idata
 0042 4040              .byte 64,64
                        .area data(ram, con, rel)
 0044                   .dbfile C:\Users\Administrator\Desktop\塔城设故板\Software\user_main.c
 0044                   .blkb 1
                        .area idata
 0044 40                .byte 64
                        .area data(ram, con, rel)
 0045                   .dbfile C:\Users\Administrator\Desktop\塔城设故板\Software\user_main.c
 0045                   .blkb 1
                        .area idata
 0045 00                .byte 0
                        .area data(ram, con, rel)
 0046                   .dbfile C:\Users\Administrator\Desktop\塔城设故板\Software\user_main.c
 0046                   .dbsym e cntConfirm _cntConfirm A[8:8]c
 0046           _userMe::
 0046                   .blkb 9
                        .area idata
 0046 303030303030303000        .byte 48,48,48,48,48,48,48,48,0
                        .area data(ram, con, rel)
 004F                   .dbfile C:\Users\Administrator\Desktop\塔城设故板\Software\user_main.c
 004F                   .blkb 9
                        .area idata
 004F 303030303030303000        .byte 48,48,48,48,48,48,48,48,0
                        .area data(ram, con, rel)
 0058                   .dbfile C:\Users\Administrator\Desktop\塔城设故板\Software\user_main.c
 0058                   .dbstruct 0 18 .2
 0058                   .dbfield 0 userID A[9:9]c
 0058                   .dbfield 9 password A[9:9]c
 0058                   .dbend
 0058                   .dbsym e userMe _userMe S[.2]
 0058           _userMe_temp::
 0058                   .blkb 9
                        .area idata
 0058 303030303030303000        .byte 48,48,48,48,48,48,48,48,0
                        .area data(ram, con, rel)
 0061                   .dbfile C:\Users\Administrator\Desktop\塔城设故板\Software\user_main.c
 0061                   .blkb 9
                        .area idata
 0061 303030303030303000        .byte 48,48,48,48,48,48,48,48,0
                        .area data(ram, con, rel)
 006A                   .dbfile C:\Users\Administrator\Desktop\塔城设故板\Software\user_main.c
 006A                   .dbsym e userMe_temp _userMe_temp S[.2]
 006A           _UI_pt::
 006A                   .blkb 1
                        .area idata
 006A 00                .byte 0
                        .area data(ram, con, rel)
 006B                   .dbfile C:\Users\Administrator\Desktop\塔城设故板\Software\user_main.c
 006B                   .dbsym e UI_pt _UI_pt c
                        .area text(rom, con, rel)
 0000                   .dbfile C:\Users\Administrator\Desktop\塔城设故板\Software\user_main.c
 0000                   .dbfunc e delay_3us _delay_3us fV
                        .even
 0000           _delay_3us::
 0000                   .dbline -1
 0000                   .dbline 66
 0000           ; #include "usart.h"
 0000           ; #include "IO_control.h"
 0000           ; 
 0000           ; const uchar *ITFR_CMD[4+2+3+3+2] = {
 0000           ; 
 0000           ;       "res_fengshan.fs_res1.txt=\"0\"",                       //1
 0000           ;       "res_fengshan.fs_res2.txt=\"0\"",
 0000           ;       "res_fengshan.fs_res3.txt=\"0\"",
 0000           ;       "res_fengshan.fs_res4.txt=\"0\"",
 0000           ;       
 0000           ;       "res_dianfanbao.dfb_res1.txt=\"0\"",            //5
 0000           ;       "res_dianfanbao.dfb_res2.txt=\"0\"",
 0000           ;       "res_dianfanbao.dfb_res3.txt=\"0\"",
 0000           ;       
 0000           ;       "res_weibolu.wbl_res1.txt=\"0\"",                       //8
 0000           ;       "res_weibolu.wbl_res2.txt=\"0\"",
 0000           ;       
 0000           ;       "res_xiaodugui.xdg_res1.txt=\"0\"",                     //10
 0000           ;       "res_xiaodugui.xdg_res2.txt=\"0\""
 0000           ;       
 0000           ;       "res_xiyiji.xyj_res1.txt=\"0\"",                        //12
 0000           ;       "res_xiyiji.xyj_res2.txt=\"0\"",
 0000           ;       "res_xiyiji.xyj_res3.txt=\"0\"",        
 0000           ; };
 0000           ; 
 0000           ; const uchar *WIFI_CMD[17] = {
 0000           ; 
 0000           ;       "at+netmode=2",
 0000           ;       "at+dhcpd=0",
 0000           ;       "at+wifi_conf=GTA2017,wpawpa2_aes,gta114605",
 0000           ;       "at+dhcpc=0",
 0000           ;       "at+net_ip="device_IP",255.255.255.0,10.2.8.254",
 0000           ;       "at+net_dns=202.96.128.86,202.96.134.33",
 0000           ;       "at+remotepro=tcp",
 0000           ;       "at+mode=client",
 0000           ;       "at+remoteip=10.2.8.139",
 0000           ;       "at+remoteport=8088",
 0000           ;       "at+CLport=1234",
 0000           ;       "at+timeout=0",
 0000           ;       "at+uart=9600,8,n,1",
 0000           ;       "at+uartpacklen=64",
 0000           ;       "at+uartpacktimeout=10",
 0000           ;       "at+net_commit=1",
 0000           ;       "at+reconn=1"
 0000           ; };
 0000           ; 
 0000           ; const char cntConfirm[8] = {0x5a,device_ID,0x03,0x40,0x40,0x40,0x40};
 0000           ; 
 0000           ; extern uchar WIFI_BUF_QUE[BUFFER0_QLENTH][UART0_RX_BUFFER_SIZE];      
 0000           ; extern uchar ITFR_BUF_QUE[BUFFER1_QLENTH][UART1_RX_BUFFER_SIZE];      
 0000           ; 
 0000           ; extern infoMal infoMal_teacher;
 0000           ; extern infoMal infoMal_student;
 0000           ; 
 0000           ; extern uchar resIOJudge[9];                   //老师设故与学生解故比较结果存放
 0000           ; 
 0000           ; infoUser userMe        = {"00000000","00000000"};
 0000           ; infoUser userMe_temp = {"00000000","00000000"};
 0000           ; 
 0000           ; uchar UI_pt = 0x00;                   //UI界面游标，指向当前所显示界面
 0000           ; 
 0000           ; void delay_3us(void);
 0000           ; void wifiConnecting(void);
 0000           ; 
 0000           ; void delay_3us(void)  //3us延时函数,,可重复调用不影响精度 
 0000           ; {
 0000                   .dbline 67
 0000           ;    asm("nop"); asm("nop"); asm("nop"); asm("nop"); asm("nop"); asm("nop");
 0000 0000              nop
 0002                   .dbline 67
 0002 0000              nop
 0004                   .dbline 67
 0004 0000              nop
 0006                   .dbline 67
 0006 0000              nop
 0008                   .dbline 67
 0008 0000              nop
 000A                   .dbline 67
 000A 0000              nop
 000C                   .dbline 68
 000C           ;    asm("nop"); asm("nop"); asm("nop"); asm("nop"); asm("nop"); asm("nop");
 000C 0000              nop
 000E                   .dbline 68
 000E 0000              nop
 0010                   .dbline 68
 0010 0000              nop
 0012                   .dbline 68
 0012 0000              nop
 0014                   .dbline 68
 0014 0000              nop
 0016                   .dbline 68
 0016 0000              nop
 0018                   .dbline 69
 0018           ;    asm("nop"); asm("nop"); asm("nop"); asm("nop"); asm("nop"); asm("nop");
 0018 0000              nop
 001A                   .dbline 69
 001A 0000              nop
 001C                   .dbline 69
 001C 0000              nop
 001E                   .dbline 69
 001E 0000              nop
 0020                   .dbline 69
 0020 0000              nop
 0022                   .dbline 69
 0022 0000              nop
 0024                   .dbline -2
 0024           L34:
 0024                   .dbline 0 ; func end
 0024 0895              ret
 0026                   .dbend
 0026                   .dbfunc e delay_10us _delay_10us fV
                        .even
 0026           _delay_10us::
 0026                   .dbline -1
 0026                   .dbline 73
 0026           ; }
 0026           ; 
 0026           ; void delay_10us(void)  //10us延时函数,可重复调用不影响精度
 0026           ; {
 0026                   .dbline 74
 0026           ;       delay_3us();
 0026 ECDF              xcall _delay_3us
 0028                   .dbline 75
 0028           ;       delay_3us();
 0028 EBDF              xcall _delay_3us
 002A                   .dbline 76
 002A           ;       delay_3us();
 002A                   .dbline -2
 002A           L35:
 002A                   .dbline 0 ; func end
 002A EACF              xjmp _delay_3us
 002C                   .dbend
 002C                   .dbfunc e delay_50us _delay_50us fV
                        .even
 002C           _delay_50us::
 002C                   .dbline -1
 002C                   .dbline 80
 002C           ; }
 002C           ; 
 002C           ; void delay_50us(void)  //48us延时函数,可重复调用不影响精度
 002C           ; {      
 002C                   .dbline 81
 002C           ;       delay_10us();    
 002C FCDF              xcall _delay_10us
 002E                   .dbline 82
 002E           ;       delay_10us();    
 002E FBDF              xcall _delay_10us
 0030                   .dbline 83
 0030           ;       delay_10us();   
 0030 FADF              xcall _delay_10us
 0032                   .dbline 84
 0032           ;       delay_10us();    
 0032 F9DF              xcall _delay_10us
 0034                   .dbline 85
 0034           ;       delay_10us();
 0034                   .dbline -2
 0034           L36:
 0034                   .dbline 0 ; func end
 0034 F8CF              xjmp _delay_10us
 0036                   .dbend
 0036                   .dbfunc e delay_100us _delay_100us fV
                        .even
 0036           _delay_100us::
 0036                   .dbline -1
 0036                   .dbline 89
 0036           ; }
 0036           ;  
 0036           ; void delay_100us(void)//exactly 98us延时函数,可重复调用不影响精度
 0036           ; {
 0036                   .dbline 90
 0036           ;   delay_50us();
 0036 FADF              xcall _delay_50us
 0038                   .dbline 91
 0038           ;   delay_50us();
 0038 F9DF              xcall _delay_50us
 003A                   .dbline 92
 003A           ;   delay_3us();
 003A                   .dbline -2
 003A           L37:
 003A                   .dbline 0 ; func end
 003A E2CF              xjmp _delay_3us
 003C                   .dbend
 003C                   .dbfunc e delay_1ms _delay_1ms fV
                        .even
 003C           _delay_1ms::
 003C                   .dbline -1
 003C                   .dbline 96
 003C           ; }
 003C           ;  
 003C           ; void delay_1ms(void)            
 003C           ; {
 003C                   .dbline 97
 003C           ;   delay_100us(); delay_100us(); delay_100us(); delay_100us(); delay_100us();
 003C FCDF              xcall _delay_100us
 003E                   .dbline 97
 003E FBDF              xcall _delay_100us
 0040                   .dbline 97
 0040 FADF              xcall _delay_100us
 0042                   .dbline 97
 0042 F9DF              xcall _delay_100us
 0044                   .dbline 97
 0044 F8DF              xcall _delay_100us
 0046                   .dbline 98
 0046           ;   delay_100us(); delay_100us(); delay_100us(); delay_100us(); delay_100us();
 0046 F7DF              xcall _delay_100us
 0048                   .dbline 98
 0048 F6DF              xcall _delay_100us
 004A                   .dbline 98
 004A F5DF              xcall _delay_100us
 004C                   .dbline 98
 004C F4DF              xcall _delay_100us
 004E                   .dbline 98
 004E                   .dbline -2
 004E           L38:
 004E                   .dbline 0 ; func end
 004E F3CF              xjmp _delay_100us
 0050                   .dbend
 0050                   .dbfunc e delay_ms _delay_ms fV
 0050           ;             ms -> R20,R21
                        .even
 0050           _delay_ms::
 0050 4A93              st -y,R20
 0052 5A93              st -y,R21
 0054 A801              movw R20,R16
 0056                   .dbline -1
 0056                   .dbline 102
 0056           ; }
 0056           ;   
 0056           ;  void delay_ms(uint ms )
 0056           ; {
 0056 01C0              xjmp L41
 0058           L40:
 0058                   .dbline 104
 0058           ;     while(ms--)  
 0058           ;               delay_1ms();//8MHZ主频时，25分钟误差小于1秒
 0058 F1DF              xcall _delay_1ms
 005A           L41:
 005A                   .dbline 103
 005A 1A01              movw R2,R20
 005C 4150              subi R20,1
 005E 5040              sbci R21,0
 0060 2220              tst R2
 0062 D1F7              brne L40
 0064 3320              tst R3
 0066 C1F7              brne L40
 0068           X0:
 0068                   .dbline -2
 0068           L39:
 0068                   .dbline 0 ; func end
 0068 5991              ld R21,y+
 006A 4991              ld R20,y+
 006C 0895              ret
 006E                   .dbsym r ms 20 i
 006E                   .dbend
 006E                   .dbfunc e EEPROM_write _EEPROM_write fV
 006E           ;           data -> R18
 006E           ;           addr -> R16
                        .even
 006E           _EEPROM_write::
 006E                   .dbline -1
 006E                   .dbline 107
 006E           ; }
 006E           ; 
 006E           ; void EEPROM_write(uchar addr,uchar data){
 006E           L44:
 006E                   .dbline 109
 006E           ; 
 006E           ;       while(EECR & BIT(EEWE));
 006E           L45:
 006E                   .dbline 109
 006E E199              sbic 0x1c,1
 0070 FECF              rjmp L44
 0072           X1:
 0072                   .dbline 110
 0072           ;       EEAR=addr;
 0072 202E              mov R2,R16
 0074 3324              clr R3
 0076 3FBA              out 0x1f,R3
 0078 2EBA              out 0x1e,R2
 007A                   .dbline 111
 007A           ;       EEDR=data;
 007A 2DBB              out 0x1d,R18
 007C                   .dbline 112
 007C           ;       EECR|=BIT(EEMWE);
 007C E29A              sbi 0x1c,2
 007E                   .dbline 113
 007E           ;       EECR|=BIT(EEWE);
 007E E19A              sbi 0x1c,1
 0080                   .dbline -2
 0080           L43:
 0080                   .dbline 0 ; func end
 0080 0895              ret
 0082                   .dbsym r data 18 c
 0082                   .dbsym r addr 16 c
 0082                   .dbend
 0082                   .dbfunc e EEPROM_read _EEPROM_read fc
 0082           ;           addr -> R16
                        .even
 0082           _EEPROM_read::
 0082                   .dbline -1
 0082                   .dbline 116
 0082           ; }
 0082           ; 
 0082           ; uchar EEPROM_read(uchar addr){
 0082           L48:
 0082                   .dbline 118
 0082           ; 
 0082           ;       while(EECR & BIT(EEWE));
 0082           L49:
 0082                   .dbline 118
 0082 E199              sbic 0x1c,1
 0084 FECF              rjmp L48
 0086           X2:
 0086                   .dbline 119
 0086           ;       EEAR=addr;
 0086 202E              mov R2,R16
 0088 3324              clr R3
 008A 3FBA              out 0x1f,R3
 008C 2EBA              out 0x1e,R2
 008E                   .dbline 120
 008E           ;       EECR|=BIT(EERE);
 008E E09A              sbi 0x1c,0
 0090                   .dbline 121
 0090           ;       return EEDR;
 0090 0DB3              in R16,0x1d
 0092                   .dbline -2
 0092           L47:
 0092                   .dbline 0 ; func end
 0092 0895              ret
 0094                   .dbsym r addr 16 c
 0094                   .dbend
 0094                   .dbfunc e userID_read _userID_read fV
 0094           ;           loop -> R20
 0094           ;           Dats -> R10,R11
                        .even
 0094           _userID_read::
 0094 0E940000          xcall push_xgset300C
 0098 5801              movw R10,R16
 009A                   .dbline -1
 009A                   .dbline 124
 009A           ; }
 009A           ; 
 009A           ; void userID_read(uchar Dats[8]){
 009A                   .dbline 128
 009A           ;        
 009A           ;       uchar loop;
 009A           ;       
 009A           ;       for(loop = 0;loop < 8;loop ++)
 009A 4427              clr R20
 009C 09C0              xjmp L55
 009E           L52:
 009E                   .dbline 129
 009E           ;               Dats[loop] = EEPROM_read(loop+0x10);
 009E 042F              mov R16,R20
 00A0 005F              subi R16,240    ; addi 16
 00A2 EFDF              xcall _EEPROM_read
 00A4 E42F              mov R30,R20
 00A6 FF27              clr R31
 00A8 EA0D              add R30,R10
 00AA FB1D              adc R31,R11
 00AC 0083              std z+0,R16
 00AE           L53:
 00AE                   .dbline 128
 00AE 4395              inc R20
 00B0           L55:
 00B0                   .dbline 128
 00B0 4830              cpi R20,8
 00B2 A8F3              brlo L52
 00B4           X3:
 00B4                   .dbline -2
 00B4           L51:
 00B4                   .dbline 0 ; func end
 00B4 0C940000          xjmp pop_xgset300C
 00B8                   .dbsym r loop 20 c
 00B8                   .dbsym r Dats 10 pc
 00B8                   .dbend
 00B8                   .dbfunc e userID_write _userID_write fV
 00B8           ;           loop -> R20
 00B8           ;           Dats -> R10,R11
                        .even
 00B8           _userID_write::
 00B8 0E940000          xcall push_xgset300C
 00BC 5801              movw R10,R16
 00BE                   .dbline -1
 00BE                   .dbline 132
 00BE           ; }
 00BE           ; 
 00BE           ; void userID_write(uchar Dats[8]){                //eeprom读用户名
 00BE                   .dbline 136
 00BE           ;        
 00BE           ;       uchar loop;
 00BE           ;       
 00BE           ;       for(loop = 0;loop < 8;loop ++)
 00BE 4427              clr R20
 00C0 09C0              xjmp L60
 00C2           L57:
 00C2                   .dbline 137
 00C2           ;               EEPROM_write(loop+0x10,Dats[loop]);
 00C2 E42F              mov R30,R20
 00C4 FF27              clr R31
 00C6 EA0D              add R30,R10
 00C8 FB1D              adc R31,R11
 00CA 2081              ldd R18,z+0
 00CC 042F              mov R16,R20
 00CE 005F              subi R16,240    ; addi 16
 00D0 CEDF              xcall _EEPROM_write
 00D2           L58:
 00D2                   .dbline 136
 00D2 4395              inc R20
 00D4           L60:
 00D4                   .dbline 136
 00D4 4830              cpi R20,8
 00D6 A8F3              brlo L57
 00D8           X4:
 00D8                   .dbline -2
 00D8           L56:
 00D8                   .dbline 0 ; func end
 00D8 0C940000          xjmp pop_xgset300C
 00DC                   .dbsym r loop 20 c
 00DC                   .dbsym r Dats 10 pc
 00DC                   .dbend
 00DC                   .dbfunc e password_read _password_read fV
 00DC           ;           loop -> R20
 00DC           ;           Dats -> R10,R11
                        .even
 00DC           _password_read::
 00DC 0E940000          xcall push_xgset300C
 00E0 5801              movw R10,R16
 00E2                   .dbline -1
 00E2                   .dbline 141
 00E2           ; }
 00E2           ; 
 00E2           ; 
 00E2           ; void password_read(uchar Dats[8]){               //eeprom读密码
 00E2                   .dbline 145
 00E2           ;        
 00E2           ;       uchar loop;
 00E2           ;       
 00E2           ;       for(loop = 0;loop < 8;loop ++)
 00E2 4427              clr R20
 00E4 09C0              xjmp L65
 00E6           L62:
 00E6                   .dbline 146
 00E6           ;               Dats[loop] = EEPROM_read(loop+0x20);
 00E6 042F              mov R16,R20
 00E8 005E              subi R16,224    ; addi 32
 00EA CBDF              xcall _EEPROM_read
 00EC E42F              mov R30,R20
 00EE FF27              clr R31
 00F0 EA0D              add R30,R10
 00F2 FB1D              adc R31,R11
 00F4 0083              std z+0,R16
 00F6           L63:
 00F6                   .dbline 145
 00F6 4395              inc R20
 00F8           L65:
 00F8                   .dbline 145
 00F8 4830              cpi R20,8
 00FA A8F3              brlo L62
 00FC           X5:
 00FC                   .dbline -2
 00FC           L61:
 00FC                   .dbline 0 ; func end
 00FC 0C940000          xjmp pop_xgset300C
 0100                   .dbsym r loop 20 c
 0100                   .dbsym r Dats 10 pc
 0100                   .dbend
 0100                   .dbfunc e password_write _password_write fV
 0100           ;           loop -> R20
 0100           ;           Dats -> R10,R11
                        .even
 0100           _password_write::
 0100 0E940000          xcall push_xgset300C
 0104 5801              movw R10,R16
 0106                   .dbline -1
 0106                   .dbline 149
 0106           ; }
 0106           ; 
 0106           ; void password_write(uchar Dats[8]){
 0106                   .dbline 153
 0106           ;        
 0106           ;       uchar loop;
 0106           ;       
 0106           ;       for(loop = 0;loop < 8;loop ++)
 0106 4427              clr R20
 0108 09C0              xjmp L70
 010A           L67:
 010A                   .dbline 154
 010A           ;               EEPROM_write(loop+0x20,Dats[loop]);
 010A E42F              mov R30,R20
 010C FF27              clr R31
 010E EA0D              add R30,R10
 0110 FB1D              adc R31,R11
 0112 2081              ldd R18,z+0
 0114 042F              mov R16,R20
 0116 005E              subi R16,224    ; addi 32
 0118 AADF              xcall _EEPROM_write
 011A           L68:
 011A                   .dbline 153
 011A 4395              inc R20
 011C           L70:
 011C                   .dbline 153
 011C 4830              cpi R20,8
 011E A8F3              brlo L67
 0120           X6:
 0120                   .dbline -2
 0120           L66:
 0120                   .dbline 0 ; func end
 0120 0C940000          xjmp pop_xgset300C
 0124                   .dbsym r loop 20 c
 0124                   .dbsym r Dats 10 pc
 0124                   .dbend
 0124                   .dbfunc e reaptRes _reaptRes fV
 0124           ;           loop -> R20
                        .even
 0124           _reaptRes::
 0124 4A93              st -y,R20
 0126                   .dbline -1
 0126                   .dbline 157
 0126           ; }
 0126           ; 
 0126           ; void reaptRes(void){                                     //提交结果
 0126                   .dbline 161
 0126           ; 
 0126           ;        uchar loop;
 0126           ;        
 0126           ;        for(loop = 0;loop < 4;loop ++)
 0126 4427              clr R20
 0128 10C0              xjmp L75
 012A           L72:
 012A                   .dbline 162
 012A           ;               if(resIOJudge[loop] == 0)resIOJudge[loop] = 0x40;
 012A 80E0              ldi R24,<_resIOJudge
 012C 90E0              ldi R25,>_resIOJudge
 012E E42F              mov R30,R20
 0130 FF27              clr R31
 0132 E80F              add R30,R24
 0134 F91F              adc R31,R25
 0136 2080              ldd R2,z+0
 0138 2220              tst R2
 013A 31F4              brne L76
 013C           X7:
 013C                   .dbline 162
 013C E42F              mov R30,R20
 013E FF27              clr R31
 0140 E80F              add R30,R24
 0142 F91F              adc R31,R25
 0144 80E4              ldi R24,64
 0146 8083              std z+0,R24
 0148           L76:
 0148           L73:
 0148                   .dbline 161
 0148 4395              inc R20
 014A           L75:
 014A                   .dbline 161
 014A 4430              cpi R20,4
 014C 70F3              brlo L72
 014E           X8:
 014E                   .dbline 164
 014E           ; 
 014E           ;        WIFI_PUTC(0x5a);
 014E 0AE5              ldi R16,90
 0150 0E940000          xcall _putchar1
 0154                   .dbline 165
 0154           ;        WIFI_PUTC(device_ID);
 0154 04E0              ldi R16,4
 0156 0E940000          xcall _putchar1
 015A                   .dbline 166
 015A           ;        WIFI_PUTC(0x20);
 015A 00E2              ldi R16,32
 015C 0E940000          xcall _putchar1
 0160                   .dbline 167
 0160           ;        WIFI_PUTS(resIOJudge);
 0160 00E0              ldi R16,<_resIOJudge
 0162 10E0              ldi R17,>_resIOJudge
 0164 0E940000          xcall _puts1
 0168                   .dbline -2
 0168           L71:
 0168                   .dbline 0 ; func end
 0168 4991              ld R20,y+
 016A 0895              ret
 016C                   .dbsym r loop 20 c
 016C                   .dbend
 016C                   .dbfunc e bspInit _bspInit fV
                        .even
 016C           _bspInit::
 016C                   .dbline -1
 016C                   .dbline 171
 016C           ; }
 016C           ; 
 016C           ; void bspInit(void)                                               //初始化
 016C           ; {     
 016C                   .dbline 172
 016C           ;       usart_init();                                              //串口初始化
 016C 0E940000          xcall _usart_init
 0170                   .dbline 174
 0170           ;       
 0170           ;       ITFR_PUTS("page connecting");              //首页
 0170 00E0              ldi R16,<L79
 0172 10E0              ldi R17,>L79
 0174 0E940000          xcall _puts0
 0178                   .dbline 176
 0178           ;       
 0178           ;       IOReinstate();                                             //端口复位及信息清空
 0178 0E940000          xcall _IOReinstate
 017C                   .dbline 178
 017C           ;       
 017C           ;       wifiConnecting();
 017C 36D0              xcall _wifiConnecting
 017E                   .dbline 180
 017E           ;       
 017E           ;       userID_read(userMe.userID);                        //读用户
 017E 00E0              ldi R16,<_userMe
 0180 10E0              ldi R17,>_userMe
 0182 88DF              xcall _userID_read
 0184                   .dbline 181
 0184           ;       password_read(userMe.password);            //读密码
 0184 00E0              ldi R16,<_userMe+9
 0186 10E0              ldi R17,>_userMe+9
 0188                   .dbline -2
 0188           L78:
 0188                   .dbline 0 ; func end
 0188 A9CF              xjmp _password_read
 018A                   .dbend
 018A                   .dbfunc e getConnect _getConnect fV
 018A           ;          loopa -> R20
                        .even
 018A           _getConnect::
 018A 4A93              st -y,R20
 018C                   .dbline -1
 018C                   .dbline 184
 018C           ; }
 018C           ; 
 018C           ; void getConnect(void){
 018C                   .dbline 188
 018C           ; 
 018C           ;       uchar loopa;
 018C           ;       
 018C           ;       for(loopa = 0;loopa < 30;loopa ++){
 018C 4427              clr R20
 018E 07C0              xjmp L85
 0190           L82:
 0190                   .dbline 188
 0190                   .dbline 190
 0190           ;                                 
 0190           ;               WIFI_PUTC('+');
 0190 0BE2              ldi R16,43
 0192 0E940000          xcall _putchar1
 0196                   .dbline 191
 0196           ;               delay_ms(100);
 0196 04E6              ldi R16,100
 0198 10E0              ldi R17,0
 019A 5ADF              xcall _delay_ms
 019C                   .dbline 192
 019C           ;       }
 019C           L83:
 019C                   .dbline 188
 019C 4395              inc R20
 019E           L85:
 019E                   .dbline 188
 019E 4E31              cpi R20,30
 01A0 B8F3              brlo L82
 01A2           X9:
 01A2                   .dbline 194
 01A2           ;               
 01A2           ;       for(loopa = 0;loopa < 17;loopa ++)
 01A2 4427              clr R20
 01A4 0DC0              xjmp L89
 01A6           L86:
 01A6                   .dbline 195
 01A6           ;               WIFI_PUTS((uchar*)WIFI_CMD[loopa]);
 01A6 80E0              ldi R24,<_WIFI_CMD
 01A8 90E0              ldi R25,>_WIFI_CMD
 01AA E42F              mov R30,R20
 01AC FF27              clr R31
 01AE EE0F              lsl R30
 01B0 FF1F              rol R31
 01B2 E80F              add R30,R24
 01B4 F91F              adc R31,R25
 01B6 0081              ldd R16,z+0
 01B8 1181              ldd R17,z+1
 01BA 0E940000          xcall _puts1
 01BE           L87:
 01BE                   .dbline 194
 01BE 4395              inc R20
 01C0           L89:
 01C0                   .dbline 194
 01C0 4131              cpi R20,17
 01C2 88F3              brlo L86
 01C4           X10:
 01C4                   .dbline 197
 01C4           ;               
 01C4           ;       delay_ms(500);
 01C4 04EF              ldi R16,500
 01C6 11E0              ldi R17,1
 01C8 43DF              xcall _delay_ms
 01CA                   .dbline 198
 01CA           ;       WIFI_PUTS("at+reconn=1");
 01CA 00E0              ldi R16,<L33
 01CC 10E0              ldi R17,>L33
 01CE 0E940000          xcall _puts1
 01D2                   .dbline 199
 01D2           ;       delay_ms(500);
 01D2 04EF              ldi R16,500
 01D4 11E0              ldi R17,1
 01D6 3CDF              xcall _delay_ms
 01D8                   .dbline 200
 01D8           ;       WIFI_PUTS("at+reconn=1");
 01D8 00E0              ldi R16,<L33
 01DA 10E0              ldi R17,>L33
 01DC 0E940000          xcall _puts1
 01E0                   .dbline 201
 01E0           ;       delay_ms(500);
 01E0 04EF              ldi R16,500
 01E2 11E0              ldi R17,1
 01E4 35DF              xcall _delay_ms
 01E6                   .dbline -2
 01E6           L81:
 01E6                   .dbline 0 ; func end
 01E6 4991              ld R20,y+
 01E8 0895              ret
 01EA                   .dbsym r loopa 20 c
 01EA                   .dbend
 01EA                   .dbfunc e wifiConnecting _wifiConnecting fV
                        .even
 01EA           _wifiConnecting::
 01EA 2797              sbiw R28,7
 01EC                   .dbline -1
 01EC                   .dbline 204
 01EC           ; }
 01EC           ; 
 01EC           ; void wifiConnecting(void){                               //初始化连接
 01EC                   .dbline 206
 01EC           ;       
 01EC           ;       ITFR_PUTS("page connecting");
 01EC 00E0              ldi R16,<L79
 01EE 10E0              ldi R17,>L79
 01F0 0E940000          xcall _puts0
 01F4                   .dbline 207
 01F4           ;       UI_pt = 0x00;
 01F4 2224              clr R2
 01F6 20926A00          sts _UI_pt,R2
 01FA 20C0              xjmp L92
 01FC           L91:
 01FC                   .dbline 210
 01FC           ;       
 01FC           ;       while(1)
 01FC           ;       if(!ATTX_M1(WIFI,(char*)cntConfirm,(char*)cntConfirm,0,1000,6))
 01FC 86E0              ldi R24,6
 01FE 8E83              std y+6,R24
 0200 88EE              ldi R24,1000
 0202 93E0              ldi R25,3
 0204 9D83              std y+5,R25
 0206 8C83              std y+4,R24
 0208 2224              clr R2
 020A 2A82              std y+2,R2
 020C 80E0              ldi R24,<_cntConfirm
 020E 90E0              ldi R25,>_cntConfirm
 0210 9983              std y+1,R25
 0212 8883              std y+0,R24
 0214 20E0              ldi R18,<_cntConfirm
 0216 30E0              ldi R19,>_cntConfirm
 0218 02E4              ldi R16,66
 021A 0E940000          xcall _ATTX_M1
 021E 0023              tst R16
 0220 41F4              brne L94
 0222           X11:
 0222                   .dbline 211
 0222           ;       {
 0222                   .dbline 213
 0222           ;       
 0222           ;               ITFR_PUTS("page main");
 0222 00E0              ldi R16,<L96
 0224 10E0              ldi R17,>L96
 0226 0E940000          xcall _puts0
 022A                   .dbline 214
 022A           ;               UI_pt = 0x01;
 022A 81E0              ldi R24,1
 022C 80936A00          sts _UI_pt,R24
 0230                   .dbline 215
 0230           ;               return;
 0230 06C0              xjmp L90
 0232           L94:
 0232                   .dbline 218
 0232           ;       }
 0232           ;       else 
 0232           ;       {
 0232                   .dbline 220
 0232           ;                
 0232           ;               getConnect();
 0232 ABDF              xcall _getConnect
 0234                   .dbline 221
 0234           ;               ITFR_PUTS("page connecting");
 0234 00E0              ldi R16,<L79
 0236 10E0              ldi R17,>L79
 0238 0E940000          xcall _puts0
 023C                   .dbline 222
 023C           ;       }
 023C           L92:
 023C                   .dbline 209
 023C DFCF              xjmp L91
 023E           X12:
 023E                   .dbline -2
 023E           L90:
 023E                   .dbline 0 ; func end
 023E 2796              adiw R28,7
 0240 0895              ret
 0242                   .dbend
 0242                   .dbfunc e wifiReconnect _wifiReconnect fV
                        .even
 0242           _wifiReconnect::
 0242 4A93              st -y,R20
 0244 5A93              st -y,R21
 0246 2797              sbiw R28,7
 0248                   .dbline -1
 0248                   .dbline 225
 0248           ; }
 0248           ; 
 0248           ; void wifiReconnect(void){                                     //中途断开重连
 0248                   .dbline 227
 0248           ;       
 0248           ;       ITFR_PUTS("page reconnect");
 0248 00E0              ldi R16,<L98
 024A 10E0              ldi R17,>L98
 024C 0E940000          xcall _puts0
 0250 2EC0              xjmp L100
 0252           L99:
 0252                   .dbline 230
 0252           ;       
 0252           ;       while(1)
 0252           ;       if(!ATTX_M1(WIFI,(char*)cntConfirm,(char*)cntConfirm,0,1000,6))
 0252 86E0              ldi R24,6
 0254 8E83              std y+6,R24
 0256 88EE              ldi R24,1000
 0258 93E0              ldi R25,3
 025A 9D83              std y+5,R25
 025C 8C83              std y+4,R24
 025E 2224              clr R2
 0260 2A82              std y+2,R2
 0262 80E0              ldi R24,<_cntConfirm
 0264 90E0              ldi R25,>_cntConfirm
 0266 9983              std y+1,R25
 0268 8883              std y+0,R24
 026A 20E0              ldi R18,<_cntConfirm
 026C 30E0              ldi R19,>_cntConfirm
 026E 02E4              ldi R16,66
 0270 0E940000          xcall _ATTX_M1
 0274 0023              tst R16
 0276 B1F4              brne L102
 0278           X13:
 0278                   .dbline 231
 0278           ;       {
 0278                   .dbline 233
 0278           ;       
 0278           ;               switch(UI_pt){
 0278 40916A00          lds R20,_UI_pt
 027C 5527              clr R21
 027E 4130              cpi R20,1
 0280 E0E0              ldi R30,0
 0282 5E07              cpc R21,R30
 0284 29F0              breq L107
 0286           X14:
 0286 4230              cpi R20,2
 0288 E0E0              ldi R30,0
 028A 5E07              cpc R21,R30
 028C 31F0              breq L108
 028E           X15:
 028E 10C0              xjmp L97
 0290           L107:
 0290                   .dbline 235
 0290           ;               
 0290           ;                       case 0x01:      ITFR_PUTS("page main");                                    break;
 0290 00E0              ldi R16,<L96
 0292 10E0              ldi R17,>L96
 0294 0E940000          xcall _puts0
 0298                   .dbline 235
 0298 0BC0              xjmp L97
 029A           L108:
 029A                   .dbline 236
 029A           ;                       case 0x02:      ITFR_PUTS("page device_select");                   break;
 029A 00E0              ldi R16,<L109
 029C 10E0              ldi R17,>L109
 029E 0E940000          xcall _puts0
 02A2                   .dbline 236
 02A2                   .dbline 237
 02A2           ;                       default:        break;
 02A2                   .dbline 239
 02A2           ;               }
 02A2           ;               return;
 02A2 06C0              xjmp L97
 02A4           L102:
 02A4                   .dbline 242
 02A4           ;       }
 02A4           ;       else 
 02A4           ;       {
 02A4                   .dbline 244
 02A4           ;                
 02A4           ;               getConnect();
 02A4 72DF              xcall _getConnect
 02A6                   .dbline 245
 02A6           ;               ITFR_PUTS("page reconnect");
 02A6 00E0              ldi R16,<L98
 02A8 10E0              ldi R17,>L98
 02AA 0E940000          xcall _puts0
 02AE                   .dbline 246
 02AE           ;       }
 02AE           L100:
 02AE                   .dbline 229
 02AE D1CF              xjmp L99
 02B0           X16:
 02B0                   .dbline -2
 02B0           L97:
 02B0                   .dbline 0 ; func end
 02B0 2796              adiw R28,7
 02B2 5991              ld R21,y+
 02B4 4991              ld R20,y+
 02B6 0895              ret
 02B8                   .dbend
 02B8                   .dbfunc e thread_main _thread_main fV
                        .area  func_lit(rom, con, rel)
 0000           L158:
 0000 E901              .word `L144
 0002 EE01              .word `L145
 0004 F301              .word `L146
 0006 F801              .word `L147
 0008 FD01              .word `L148
 000A 0202              .word `L149
 000C 0702              .word `L150
 000E 0C02              .word `L151
 0010 1102              .word `L152
 0012 1602              .word `L153
 0014 1B02              .word `L154
 0016 2002              .word `L155
 0018 2502              .word `L156
 001A 2A02              .word `L157
                        .area text(rom, con, rel)
                ;    heartBeat_A -> y+6
                ;    heartBeat_B -> y+2
                ;          loopa -> R20
                ;          loopb -> R22
                        .even
 02B8           _thread_main::
 02B8 0E940000          xcall push_xgsetF000
 02BC 2A97              sbiw R28,10
 02BE                   .dbline -1
 02BE                   .dbline 249
 02BE           ; }
 02BE           ; 
 02BE           ; void thread_main(void){
 02BE                   .dbline 255
 02BE           ; 
 02BE           ;        uchar loopa,loopb;
 02BE           ;        
 02BE           ;        unsigned long  heartBeat_A,heartBeat_B;
 02BE           ;        
 02BE           ;        heartBeat_A = heartBeat_B = 0;
 02BE 80E0              ldi R24,0
 02C0 8A83              std y+2+0,R24
 02C2 8B83              std y+2+1,R24
 02C4 8C83              std y+2+2,R24
 02C6 8D83              std y+2+3,R24
 02C8 80E0              ldi R24,0
 02CA 8E83              std y+6+0,R24
 02CC 8F83              std y+6+1,R24
 02CE 8887              std y+6+2,R24
 02D0 8987              std y+6+3,R24
 02D2 74C3              xjmp L112
 02D4           L111:
 02D4                   .dbline 257
 02D4           ; 
 02D4           ;        while(1){
 02D4                   .dbline 264
 02D4           ;        
 02D4           ;        /*********************************************PROCESSING_WIFI*********************************************/
 02D4           ;                
 02D4           ;                //putchar0(0x30+strcmp(userMe_temp.userID,userMe.userID));                             //用户名比较结果测试
 02D4           ;                //putchar0(0x30+strcmp(userMe_temp.password,userMe.password));                 //密码比较结果测试
 02D4           ;                
 02D4           ;                if(WIFI_BUF[0] == 0x5a){                               //包头解析
 02D4 80910000          lds R24,_UART1_RxBuff_Queue
 02D8 8A35              cpi R24,90
 02DA 09F0              breq X77
 02DC 13C1              xjmp L114
 02DE           X77:
 02DE           X17:
 02DE                   .dbline 264
 02DE                   .dbline 266
 02DE           ;                
 02DE           ;                        if((WIFI_BUF[1] == device_ID) || (WIFI_BUF[1] == 0x06)){
 02DE 80910100          lds R24,_UART1_RxBuff_Queue+1
 02E2 8430              cpi R24,4
 02E4 19F0              breq L120
 02E6           X18:
 02E6 8630              cpi R24,6
 02E8 09F0              breq X78
 02EA 0CC1              xjmp L116
 02EC           X78:
 02EC           X19:
 02EC           L120:
 02EC                   .dbline 266
 02EC                   .dbline 268
 02EC           ;                        
 02EC           ;                                switch(WIFI_BUF[2]){
 02EC 40910200          lds R20,_UART1_RxBuff_Queue+2
 02F0 5527              clr R21
 02F2 4031              cpi R20,16
 02F4 E0E0              ldi R30,0
 02F6 5E07              cpc R21,R30
 02F8 A9F1              breq L131
 02FA           X20:
 02FA 80E1              ldi R24,16
 02FC 90E0              ldi R25,0
 02FE 8417              cp R24,R20
 0300 9507              cpc R25,R21
 0302 74F0              brlt L164
 0304           X21:
 0304           L163:
 0304 4130              cpi R20,1
 0306 E0E0              ldi R30,0
 0308 5E07              cpc R21,R30
 030A 81F0              breq L125
 030C           X22:
 030C 4230              cpi R20,2
 030E E0E0              ldi R30,0
 0310 5E07              cpc R21,R30
 0312 D1F0              breq L127
 0314           X23:
 0314 4330              cpi R20,3
 0316 E0E0              ldi R30,0
 0318 5E07              cpc R21,R30
 031A 09F4              brne X79
 031C BCC0              xjmp L162
 031E           X79:
 031E           X24:
 031E C0C0              xjmp L122
 0320           L164:
 0320 4033              cpi R20,48
 0322 E0E0              ldi R30,0
 0324 5E07              cpc R21,R30
 0326 09F4              brne X80
 0328 A5C0              xjmp L160
 032A           X80:
 032A           X25:
 032A BAC0              xjmp L122
 032C           L125:
 032C                   .dbline 270
 032C           ;                                 
 032C           ;                                        case 0x01:              strcpy(userMe.userID,&(WIFI_BUF[3]));userID_write(userMe.userID);      //老师设置用户名
 032C 20E0              ldi R18,<_UART1_RxBuff_Queue+3
 032E 30E0              ldi R19,>_UART1_RxBuff_Queue+3
 0330 00E0              ldi R16,<_userMe
 0332 10E0              ldi R17,>_userMe
 0334 0E940000          xcall _strcpy
 0338                   .dbline 270
 0338 00E0              ldi R16,<_userMe
 033A 10E0              ldi R17,>_userMe
 033C BDDE              xcall _userID_write
 033E                   .dbline 271
 033E           ;                                                                        ITFR_PUTS("page main");
 033E 00E0              ldi R16,<L96
 0340 10E0              ldi R17,>L96
 0342 0E940000          xcall _puts0
 0346                   .dbline 273
 0346           ;                                                                        //WIFI_PUTS("userID set");WIFI_PUTS(userMe.userID);            //测试wifi获取老师设置的用户名
 0346           ;                                                                        break;
 0346 ACC0              xjmp L122
 0348           L127:
 0348                   .dbline 275
 0348           ;                                                                        
 0348           ;                                        case 0x02:              strcpy(userMe.password,&(WIFI_BUF[3]));password_write(userMe.password);        //老师设置密码
 0348 20E0              ldi R18,<_UART1_RxBuff_Queue+3
 034A 30E0              ldi R19,>_UART1_RxBuff_Queue+3
 034C 00E0              ldi R16,<_userMe+9
 034E 10E0              ldi R17,>_userMe+9
 0350 0E940000          xcall _strcpy
 0354                   .dbline 275
 0354 00E0              ldi R16,<_userMe+9
 0356 10E0              ldi R17,>_userMe+9
 0358 D3DE              xcall _password_write
 035A                   .dbline 276
 035A           ;                                                                        ITFR_PUTS("page main");
 035A 00E0              ldi R16,<L96
 035C 10E0              ldi R17,>L96
 035E 0E940000          xcall _puts0
 0362                   .dbline 278
 0362           ;                                                                        //WIFI_PUTS("password set");WIFI_PUTS(userMe.password);        //测试测试wifi获取老师设置的密码
 0362           ;                                                                        break;
 0362 9EC0              xjmp L122
 0364           L131:
 0364                   .dbline 280
 0364           ;                                                                        
 0364           ;                                        case 0x10:              IOReinstate();                                                                                         //避免重复设故，以最后一次为准，将上一次复位
 0364 0E940000          xcall _IOReinstate
 0368                   .dbline 281
 0368           ;                                                                        ITFR_PUTS("device_select.dfs.txt=\"0\"");
 0368 00E0              ldi R16,<L132
 036A 10E0              ldi R17,>L132
 036C 0E940000          xcall _puts0
 0370                   .dbline 282
 0370           ;                                                                        ITFR_PUTS("device_select.dfb.txt=\"0\"");
 0370 00E0              ldi R16,<L133
 0372 10E0              ldi R17,>L133
 0374 0E940000          xcall _puts0
 0378                   .dbline 283
 0378           ;                                                                        ITFR_PUTS("device_select.wbl.txt=\"0\"");
 0378 00E0              ldi R16,<L134
 037A 10E0              ldi R17,>L134
 037C 0E940000          xcall _puts0
 0380                   .dbline 284
 0380           ;                                                                        ITFR_PUTS("device_select.xdg.txt=\"0\"");
 0380 00E0              ldi R16,<L135
 0382 10E0              ldi R17,>L135
 0384 0E940000          xcall _puts0
 0388                   .dbline 285
 0388           ;                                                                        ITFR_PUTS("device_select.xyj.txt=\"0\"");
 0388 00E0              ldi R16,<L136
 038A 10E0              ldi R17,>L136
 038C 0E940000          xcall _puts0
 0390                   .dbline 287
 0390           ;                                                                        
 0390           ;                                                                        for(loopa = 3;loopa < 17;loopa ++){                                            //老师设故解析,注意此处字节数有限制
 0390 43E0              ldi R20,3
 0392 65C0              xjmp L140
 0394           L137:
 0394                   .dbline 287
 0394                   .dbline 289
 0394           ;                                        
 0394           ;                                                                               switch(WIFI_BUF[loopa]){                                                                //设故板响应，设定成老师设故要求
 0394 80E0              ldi R24,<_UART1_RxBuff_Queue
 0396 90E0              ldi R25,>_UART1_RxBuff_Queue
 0398 E42F              mov R30,R20
 039A FF27              clr R31
 039C E80F              add R30,R24
 039E F91F              adc R31,R25
 03A0 6081              ldd R22,z+0
 03A2 7727              clr R23
 03A4 6130              cpi R22,1
 03A6 E0E0              ldi R30,0
 03A8 7E07              cpc R23,R30
 03AA 0CF4              brge X81
 03AC 57C0              xjmp L142
 03AE           X81:
 03AE           X26:
 03AE 8EE0              ldi R24,14
 03B0 90E0              ldi R25,0
 03B2 8617              cp R24,R22
 03B4 9707              cpc R25,R23
 03B6 0CF4              brge X82
 03B8 51C0              xjmp L142
 03BA           X82:
 03BA           X27:
 03BA 80E0              ldi R24,<L158
 03BC 90E0              ldi R25,>L158
 03BE FB01              movw R30,R22
 03C0 3197              sbiw R30,1
 03C2 EE0F              lsl R30
 03C4 FF1F              rol R31
 03C6 E80F              add R30,R24
 03C8 F91F              adc R31,R25
 03CA 2790              elpm R2,Z+
 03CC 3690              elpm R3,Z
 03CE F101              movw R30,R2
 03D0 0994               ijmp
 03D2           X28:
 03D2                   .dbfile C:\Users\Administrator\Desktop\塔城设故板\Software\user_main.c
 03D2                   .dbline 289
 03D2           L144:
 03D2                   .dbline 291
 03D2           ;                                                                                                                
 03D2           ;                                                                                       case  1:        dianfengshan_IO('T',1); break;
 03D2 21E0              ldi R18,1
 03D4 04E5              ldi R16,84
 03D6 0E940000          xcall _dianfengshan_IO
 03DA                   .dbline 291
 03DA 40C0              xjmp L142
 03DC           L145:
 03DC                   .dbline 292
 03DC           ;                                                                                       case  2:        dianfengshan_IO('T',2); break;
 03DC 22E0              ldi R18,2
 03DE 04E5              ldi R16,84
 03E0 0E940000          xcall _dianfengshan_IO
 03E4                   .dbline 292
 03E4 3BC0              xjmp L142
 03E6           L146:
 03E6                   .dbline 293
 03E6           ;                                                                                       case  3:        dianfengshan_IO('T',3); break;
 03E6 23E0              ldi R18,3
 03E8 04E5              ldi R16,84
 03EA 0E940000          xcall _dianfengshan_IO
 03EE                   .dbline 293
 03EE 36C0              xjmp L142
 03F0           L147:
 03F0                   .dbline 294
 03F0           ;                                                                                       case  4:        dianfengshan_IO('T',4); break;
 03F0 24E0              ldi R18,4
 03F2 04E5              ldi R16,84
 03F4 0E940000          xcall _dianfengshan_IO
 03F8                   .dbline 294
 03F8 31C0              xjmp L142
 03FA           L148:
 03FA                   .dbline 295
 03FA           ;                                                                                       case  5:        dianfanbao_IO('T',1);   break;
 03FA 21E0              ldi R18,1
 03FC 04E5              ldi R16,84
 03FE 0E940000          xcall _dianfanbao_IO
 0402                   .dbline 295
 0402 2CC0              xjmp L142
 0404           L149:
 0404                   .dbline 296
 0404           ;                                                                                       case  6:        dianfanbao_IO('T',2);   break;
 0404 22E0              ldi R18,2
 0406 04E5              ldi R16,84
 0408 0E940000          xcall _dianfanbao_IO
 040C                   .dbline 296
 040C 27C0              xjmp L142
 040E           L150:
 040E                   .dbline 297
 040E           ;                                                                                       case  7:        dianfanbao_IO('T',3);   break;
 040E 23E0              ldi R18,3
 0410 04E5              ldi R16,84
 0412 0E940000          xcall _dianfanbao_IO
 0416                   .dbline 297
 0416 22C0              xjmp L142
 0418           L151:
 0418                   .dbline 298
 0418           ;                                                                                       case  8:        weibolu_IO('T',1);              break;
 0418 21E0              ldi R18,1
 041A 04E5              ldi R16,84
 041C 0E940000          xcall _weibolu_IO
 0420                   .dbline 298
 0420 1DC0              xjmp L142
 0422           L152:
 0422                   .dbline 299
 0422           ;                                                                                       case  9:        weibolu_IO('T',2);              break;
 0422 22E0              ldi R18,2
 0424 04E5              ldi R16,84
 0426 0E940000          xcall _weibolu_IO
 042A                   .dbline 299
 042A 18C0              xjmp L142
 042C           L153:
 042C                   .dbline 300
 042C           ;                                                                                       case 10:        xiaodugui_IO('T',1);    break;
 042C 21E0              ldi R18,1
 042E 04E5              ldi R16,84
 0430 0E940000          xcall _xiaodugui_IO
 0434                   .dbline 300
 0434 13C0              xjmp L142
 0436           L154:
 0436                   .dbline 301
 0436           ;                                                                                       case 11:        xiaodugui_IO('T',2);    break;
 0436 22E0              ldi R18,2
 0438 04E5              ldi R16,84
 043A 0E940000          xcall _xiaodugui_IO
 043E                   .dbline 301
 043E 0EC0              xjmp L142
 0440           L155:
 0440                   .dbline 302
 0440           ;                                                                                       case 12:        xiyiji_IO('T',1);               break;
 0440 21E0              ldi R18,1
 0442 04E5              ldi R16,84
 0444 0E940000          xcall _xiyiji_IO
 0448                   .dbline 302
 0448 09C0              xjmp L142
 044A           L156:
 044A                   .dbline 303
 044A           ;                                                                                       case 13:        xiyiji_IO('T',2);               break;
 044A 22E0              ldi R18,2
 044C 04E5              ldi R16,84
 044E 0E940000          xcall _xiyiji_IO
 0452                   .dbline 303
 0452 04C0              xjmp L142
 0454           L157:
 0454                   .dbline 304
 0454           ;                                                                                       case 14:        xiyiji_IO('T',3);               break;
 0454 23E0              ldi R18,3
 0456 04E5              ldi R16,84
 0458 0E940000          xcall _xiyiji_IO
 045C                   .dbline 304
 045C                   .dbline 305
 045C           ;                                                                                       default:        break;
 045C           L142:
 045C                   .dbline 307
 045C           ;                                                                                }
 045C           ;                                                                        }
 045C           L138:
 045C                   .dbline 287
 045C 4395              inc R20
 045E           L140:
 045E                   .dbline 287
 045E 4131              cpi R20,17
 0460 08F4              brsh X83
 0462 98CF              xjmp L137
 0464           X83:
 0464           X29:
 0464                   .dbline 308
 0464           ;                                                                        WIFI_BUF[1] = device_ID;                                       //修改ID，原包返回响应请求
 0464 84E0              ldi R24,4
 0466 80930100          sts _UART1_RxBuff_Queue+1,R24
 046A                   .dbline 309
 046A           ;                                                                        WIFI_PUTS(WIFI_BUF);
 046A 00E0              ldi R16,<_UART1_RxBuff_Queue
 046C 10E0              ldi R17,>_UART1_RxBuff_Queue
 046E 0E940000          xcall _puts1
 0472                   .dbline 310
 0472           ;                                                                        break;
 0472 16C0              xjmp L122
 0474           L160:
 0474                   .dbline 312
 0474           ;                                                                        
 0474           ;                                        case 0x30:              IOReinstate();                                                         //设备复位
 0474 0E940000          xcall _IOReinstate
 0478                   .dbline 313
 0478           ;                                                                        ITFR_PUTS("page device_select");                       //重新开放选择界面
 0478 00E0              ldi R16,<L109
 047A 10E0              ldi R17,>L109
 047C 0E940000          xcall _puts0
 0480                   .dbline 314
 0480           ;                                                                        UI_pt = 0x02;
 0480 82E0              ldi R24,2
 0482 80936A00          sts _UI_pt,R24
 0486                   .dbline 315
 0486           ;                                                                        WIFI_BUF[1] = device_ID;                                       //修改ID，原包返回响应请求
 0486 84E0              ldi R24,4
 0488 80930100          sts _UART1_RxBuff_Queue+1,R24
 048C                   .dbline 316
 048C           ;                                                                        WIFI_PUTS(WIFI_BUF);
 048C 00E0              ldi R16,<_UART1_RxBuff_Queue
 048E 10E0              ldi R17,>_UART1_RxBuff_Queue
 0490 0E940000          xcall _puts1
 0494                   .dbline 317
 0494           ;                                                                        break;
 0494 05C0              xjmp L122
 0496           L162:
 0496                   .dbline 319
 0496           ;                                                                        
 0496           ;                                        case 0x03:              heartBeat_B = 0;                                                       //确认连接，心跳标记清零
 0496 80E0              ldi R24,0
 0498 8A83              std y+2+0,R24
 049A 8B83              std y+2+1,R24
 049C 8C83              std y+2+2,R24
 049E 8D83              std y+2+3,R24
 04A0                   .dbline 320
 04A0           ;                                                                        break;
 04A0                   .dbline 322
 04A0           ;                                                                        
 04A0           ;                                        default:                break;
 04A0           L122:
 04A0                   .dbline 325
 04A0           ;                                }
 04A0           ;                                
 04A0           ;                                if(infoMal_teacher.dianfengshan)ITFR_PUTS("device_select.dfs.txt=\"1\"");      //解冻设备选项                           
 04A0 20900000          lds R2,_infoMal_teacher
 04A4 2220              tst R2
 04A6 21F0              breq L165
 04A8           X30:
 04A8                   .dbline 325
 04A8 00E0              ldi R16,<L167
 04AA 10E0              ldi R17,>L167
 04AC 0E940000          xcall _puts0
 04B0           L165:
 04B0                   .dbline 326
 04B0           ;                                if(infoMal_teacher.dianfanbao)ITFR_PUTS("device_select.dfb.txt=\"1\"");
 04B0 20900100          lds R2,_infoMal_teacher+1
 04B4 2220              tst R2
 04B6 21F0              breq L168
 04B8           X31:
 04B8                   .dbline 326
 04B8 00E0              ldi R16,<L171
 04BA 10E0              ldi R17,>L171
 04BC 0E940000          xcall _puts0
 04C0           L168:
 04C0                   .dbline 327
 04C0           ;                                if(infoMal_teacher.weibolu)ITFR_PUTS("device_select.wbl.txt=\"1\"");
 04C0 20900200          lds R2,_infoMal_teacher+2
 04C4 2220              tst R2
 04C6 21F0              breq L172
 04C8           X32:
 04C8                   .dbline 327
 04C8 00E0              ldi R16,<L175
 04CA 10E0              ldi R17,>L175
 04CC 0E940000          xcall _puts0
 04D0           L172:
 04D0                   .dbline 328
 04D0           ;                                if(infoMal_teacher.xiaodugui)ITFR_PUTS("device_select.xdg.txt=\"1\"");
 04D0 20900300          lds R2,_infoMal_teacher+3
 04D4 2220              tst R2
 04D6 21F0              breq L176
 04D8           X33:
 04D8                   .dbline 328
 04D8 00E0              ldi R16,<L179
 04DA 10E0              ldi R17,>L179
 04DC 0E940000          xcall _puts0
 04E0           L176:
 04E0                   .dbline 329
 04E0           ;                                if(infoMal_teacher.xiyiji)ITFR_PUTS("device_select.xyj.txt=\"1\"");
 04E0 20900400          lds R2,_infoMal_teacher+4
 04E4 2220              tst R2
 04E6 21F0              breq L180
 04E8           X34:
 04E8                   .dbline 329
 04E8 00E0              ldi R16,<L183
 04EA 10E0              ldi R17,>L183
 04EC 0E940000          xcall _puts0
 04F0           L180:
 04F0                   .dbline 330
 04F0           ;                                memset(WIFI_BUF,0,sizeof(uchar)*UART0_RX_BUFFER_SIZE);
 04F0 8EE1              ldi R24,30
 04F2 90E0              ldi R25,0
 04F4 9983              std y+1,R25
 04F6 8883              std y+0,R24
 04F8 2227              clr R18
 04FA 3327              clr R19
 04FC 00E0              ldi R16,<_UART1_RxBuff_Queue
 04FE 10E0              ldi R17,>_UART1_RxBuff_Queue
 0500 0E940000          xcall _memset
 0504                   .dbline 331
 0504           ;                        }
 0504           L116:
 0504                   .dbline 332
 0504           ;                }
 0504           L114:
 0504                   .dbline 339
 0504           ;                //delay_ms(1500);                      //测试延时
 0504           ;                //WIFI_PUTS(WIFI_BUF);         //测试WIFI缓存
 0504           ;                
 0504           ;                
 0504           ;         /*********************************************PROCESSING_ITFR*********************************************/
 0504           ; 
 0504           ;                if(ITFR_BUF[0] == 0x5a){               //包头解析
 0504 80910000          lds R24,_UART0_RxBuff_Queue
 0508 8A35              cpi R24,90
 050A 09F0              breq X84
 050C 0CC2              xjmp L184
 050E           X84:
 050E           X35:
 050E                   .dbline 339
 050E                   .dbline 341
 050E           ;                
 050E           ;                        switch(ITFR_BUF[1]){
 050E 60910100          lds R22,_UART0_RxBuff_Queue+1
 0512 7727              clr R23
 0514 6032              cpi R22,32
 0516 E0E0              ldi R30,0
 0518 7E07              cpc R23,R30
 051A 09F4              brne X85
 051C 8FC0              xjmp L213
 051E           X85:
 051E           X36:
 051E 80E2              ldi R24,32
 0520 90E0              ldi R25,0
 0522 8617              cp R24,R22
 0524 9707              cpc R25,R23
 0526 BCF0              brlt L299
 0528           X37:
 0528           L298:
 0528 6130              cpi R22,1
 052A E0E0              ldi R30,0
 052C 7E07              cpc R23,R30
 052E 49F1              breq L190
 0530           X38:
 0530 6230              cpi R22,2
 0532 E0E0              ldi R30,0
 0534 7E07              cpc R23,R30
 0536 61F1              breq L192
 0538           X39:
 0538 6130              cpi R22,1
 053A E0E0              ldi R30,0
 053C 7E07              cpc R23,R30
 053E 0CF4              brge X86
 0540 BBC1              xjmp L187
 0542           X86:
 0542           X40:
 0542           L300:
 0542 6F30              cpi R22,15
 0544 E0E0              ldi R30,0
 0546 7E07              cpc R23,R30
 0548 09F4              brne X87
 054A B4C1              xjmp L297
 054C           X87:
 054C           X41:
 054C 6031              cpi R22,16
 054E E0E0              ldi R30,0
 0550 7E07              cpc R23,R30
 0552 29F1              breq L195
 0554           X42:
 0554 B1C1              xjmp L187
 0556           L299:
 0556 6034              cpi R22,64
 0558 E0E0              ldi R30,0
 055A 7E07              cpc R23,R30
 055C 09F4              brne X88
 055E 0CC1              xjmp L255
 0560           X88:
 0560           X43:
 0560 80E4              ldi R24,64
 0562 90E0              ldi R25,0
 0564 8617              cp R24,R22
 0566 9707              cpc R25,R23
 0568 34F0              brlt L302
 056A           X44:
 056A           L301:
 056A 6033              cpi R22,48
 056C E0E0              ldi R30,0
 056E 7E07              cpc R23,R30
 0570 09F4              brne X89
 0572 B3C0              xjmp L234
 0574           X89:
 0574           X45:
 0574 A1C1              xjmp L187
 0576           L302:
 0576 6035              cpi R22,80
 0578 E0E0              ldi R30,0
 057A 7E07              cpc R23,R30
 057C 09F4              brne X90
 057E 4BC1              xjmp L276
 0580           X90:
 0580           X46:
 0580 9BC1              xjmp L187
 0582           L190:
 0582                   .dbline 343
 0582           ;                        
 0582           ;                                       case 0x01:              strcpy(userMe_temp.userID,&(ITFR_BUF[2]));                                                      //学生输入用户名
 0582 20E0              ldi R18,<_UART0_RxBuff_Queue+2
 0584 30E0              ldi R19,>_UART0_RxBuff_Queue+2
 0586 00E0              ldi R16,<_userMe_temp
 0588 10E0              ldi R17,>_userMe_temp
 058A 0E940000          xcall _strcpy
 058E                   .dbline 345
 058E           ;                                                                       //ITFR_PUTS("GOT userID");ITFR_PUTS(userMe_temp.userID);                        //测试学生输入的用户名
 058E           ;                                                                       break;
 058E 94C1              xjmp L187
 0590           L192:
 0590                   .dbline 346
 0590           ;                                       case 0x02:              strcpy(userMe_temp.password,&(ITFR_BUF[2]));                                            //学生输入密码
 0590 20E0              ldi R18,<_UART0_RxBuff_Queue+2
 0592 30E0              ldi R19,>_UART0_RxBuff_Queue+2
 0594 00E0              ldi R16,<_userMe_temp+9
 0596 10E0              ldi R17,>_userMe_temp+9
 0598 0E940000          xcall _strcpy
 059C                   .dbline 348
 059C           ;                                                                       //ITFR_PUTS("GOT password set");ITFR_PUTS(userMe_temp.password);        //测试学生输入的密码
 059C           ;                                                                       break;
 059C 8DC1              xjmp L187
 059E           L195:
 059E                   .dbline 350
 059E           ;                                                                       
 059E           ;                                       case 0x10:              for(loopa = 0;loopa < 4;loopa ++)                                                                                  //学生提交解故结果解析，电分扇，4个设故点
 059E 4427              clr R20
 05A0 0FC0              xjmp L199
 05A2           L196:
 05A2                   .dbline 351
 05A2           ;                                                                               if(ITFR_BUF[loopa+2] == '1')dianfengshan_IO('S',loopa+1);                          //设故板响应，设定成学生提交结果
 05A2 80E0              ldi R24,<_UART0_RxBuff_Queue+2
 05A4 90E0              ldi R25,>_UART0_RxBuff_Queue+2
 05A6 E42F              mov R30,R20
 05A8 FF27              clr R31
 05AA E80F              add R30,R24
 05AC F91F              adc R31,R25
 05AE 8081              ldd R24,z+0
 05B0 8133              cpi R24,49
 05B2 29F4              brne L200
 05B4           X47:
 05B4                   .dbline 351
 05B4 242F              mov R18,R20
 05B6 2F5F              subi R18,255    ; addi 1
 05B8 03E5              ldi R16,83
 05BA 0E940000          xcall _dianfengshan_IO
 05BE           L200:
 05BE           L197:
 05BE                   .dbline 350
 05BE 4395              inc R20
 05C0           L199:
 05C0                   .dbline 350
 05C0 4430              cpi R20,4
 05C2 78F3              brlo L196
 05C4           X48:
 05C4                   .dbline 353
 05C4           ;                                                                               
 05C4           ;                                                                       OPJudje(infoMal_teacher.dianfengshan,infoMal_student.dianfengshan,1);      //比较学生提交结果与老是设定，得到仲裁结果           
 05C4 81E0              ldi R24,1
 05C6 8883              std y+0,R24
 05C8 20910000          lds R18,_infoMal_student
 05CC 00910000          lds R16,_infoMal_teacher
 05D0 0E940000          xcall _OPJudje
 05D4                   .dbline 354
 05D4           ;                                                                       for(loopa = 0;loopa < 4;loopa ++)                                                                                  //每一位都比较，避免游标错位
 05D4 4427              clr R20
 05D6 1DC0              xjmp L206
 05D8           L203:
 05D8                   .dbline 355
 05D8           ;                                                                           for(loopb = 1;loopb <= 4;loopb ++)                                                                     //向本地用户提交仲裁结果，只提交错误信息，loopb游标从1-4，表示故障1-4为电风扇故障
 05D8 61E0              ldi R22,1
 05DA 17C0              xjmp L210
 05DC           L207:
 05DC                   .dbline 356
 05DC           ;                                                                                   if(resIOJudge[loopa] == loopb)ITFR_PUTS((char*)ITFR_CMD[loopb-1]); //向本地用户提交结果，只提交错误的设故标号，[loopb-1]为故障标号与数组索引差值
 05DC 80E0              ldi R24,<_resIOJudge
 05DE 90E0              ldi R25,>_resIOJudge
 05E0 E42F              mov R30,R20
 05E2 FF27              clr R31
 05E4 E80F              add R30,R24
 05E6 F91F              adc R31,R25
 05E8 2080              ldd R2,z+0
 05EA 2616              cp R2,R22
 05EC 69F4              brne L211
 05EE           X49:
 05EE                   .dbline 356
 05EE 80E0              ldi R24,<_ITFR_CMD
 05F0 90E0              ldi R25,>_ITFR_CMD
 05F2 E62F              mov R30,R22
 05F4 FF27              clr R31
 05F6 3197              sbiw R30,1
 05F8 EE0F              lsl R30
 05FA FF1F              rol R31
 05FC E80F              add R30,R24
 05FE F91F              adc R31,R25
 0600 0081              ldd R16,z+0
 0602 1181              ldd R17,z+1
 0604 0E940000          xcall _puts0
 0608           L211:
 0608           L208:
 0608                   .dbline 355
 0608 6395              inc R22
 060A           L210:
 060A                   .dbline 355
 060A 84E0              ldi R24,4
 060C 8617              cp R24,R22
 060E 30F7              brsh L207
 0610           X50:
 0610           L204:
 0610                   .dbline 354
 0610 4395              inc R20
 0612           L206:
 0612                   .dbline 354
 0612 4430              cpi R20,4
 0614 08F3              brlo L203
 0616           X51:
 0616                   .dbline 358
 0616           ;                                                                       
 0616           ;                                                                       memset(resIOJudge,0,sizeof(uchar)*9);             //清除比较信息结果缓存
 0616 89E0              ldi R24,9
 0618 90E0              ldi R25,0
 061A 9983              std y+1,R25
 061C 8883              std y+0,R24
 061E 2227              clr R18
 0620 3327              clr R19
 0622 00E0              ldi R16,<_resIOJudge
 0624 10E0              ldi R17,>_resIOJudge
 0626 0E940000          xcall _memset
 062A                   .dbline 359
 062A           ;                                                                       OPJudje(0x00,infoMal_student.dianfengshan,1); //得到学生更改变动的故障对应的故障编号信息，不仲裁
 062A 81E0              ldi R24,1
 062C 8883              std y+0,R24
 062E 20910000          lds R18,_infoMal_student
 0632 0027              clr R16
 0634 0E940000          xcall _OPJudje
 0638                   .dbline 360
 0638           ;                                                                       reaptRes();                             //学生变动提交老师
 0638 75DD              xcall _reaptRes
 063A                   .dbline 362
 063A           ;                                                                               
 063A           ;                                                                       break;
 063A 3EC1              xjmp L187
 063C           L213:
 063C                   .dbline 364
 063C           ;                                                                       
 063C           ;                                       case 0x20:              for(loopa = 0;loopa < 2;loopa ++)                                                               //微波炉，2个设故点
 063C 4427              clr R20
 063E 0FC0              xjmp L217
 0640           L214:
 0640                   .dbline 365
 0640           ;                                                                               if(ITFR_BUF[loopa+2] == '1')weibolu_IO('S',loopa+1);            //loop+2为了跳过包头两个字节
 0640 80E0              ldi R24,<_UART0_RxBuff_Queue+2
 0642 90E0              ldi R25,>_UART0_RxBuff_Queue+2
 0644 E42F              mov R30,R20
 0646 FF27              clr R31
 0648 E80F              add R30,R24
 064A F91F              adc R31,R25
 064C 8081              ldd R24,z+0
 064E 8133              cpi R24,49
 0650 29F4              brne L218
 0652           X52:
 0652                   .dbline 365
 0652 242F              mov R18,R20
 0654 2F5F              subi R18,255    ; addi 1
 0656 03E5              ldi R16,83
 0658 0E940000          xcall _weibolu_IO
 065C           L218:
 065C           L215:
 065C                   .dbline 364
 065C 4395              inc R20
 065E           L217:
 065E                   .dbline 364
 065E 4230              cpi R20,2
 0660 78F3              brlo L214
 0662           X53:
 0662                   .dbline 367
 0662           ;                                                                               
 0662           ;                                                                       OPJudje(infoMal_teacher.weibolu,infoMal_student.weibolu,8);             
 0662 88E0              ldi R24,8
 0664 8883              std y+0,R24
 0666 20910200          lds R18,_infoMal_student+2
 066A 00910200          lds R16,_infoMal_teacher+2
 066E 0E940000          xcall _OPJudje
 0672                   .dbline 368
 0672           ;                                                                       for(loopa = 0;loopa < 2;loopa ++)                               
 0672 4427              clr R20
 0674 1DC0              xjmp L226
 0676           L223:
 0676                   .dbline 369
 0676           ;                                                                           for(loopb = 8;loopb <= 9;loopb ++)                                                                          //8-9
 0676 68E0              ldi R22,8
 0678 17C0              xjmp L230
 067A           L227:
 067A                   .dbline 370
 067A           ;                                                                                   if(resIOJudge[loopa] == loopb)ITFR_PUTS((char*)ITFR_CMD[loopb-1]);
 067A 80E0              ldi R24,<_resIOJudge
 067C 90E0              ldi R25,>_resIOJudge
 067E E42F              mov R30,R20
 0680 FF27              clr R31
 0682 E80F              add R30,R24
 0684 F91F              adc R31,R25
 0686 2080              ldd R2,z+0
 0688 2616              cp R2,R22
 068A 69F4              brne L231
 068C           X54:
 068C                   .dbline 370
 068C 80E0              ldi R24,<_ITFR_CMD
 068E 90E0              ldi R25,>_ITFR_CMD
 0690 E62F              mov R30,R22
 0692 FF27              clr R31
 0694 3197              sbiw R30,1
 0696 EE0F              lsl R30
 0698 FF1F              rol R31
 069A E80F              add R30,R24
 069C F91F              adc R31,R25
 069E 0081              ldd R16,z+0
 06A0 1181              ldd R17,z+1
 06A2 0E940000          xcall _puts0
 06A6           L231:
 06A6           L228:
 06A6                   .dbline 369
 06A6 6395              inc R22
 06A8           L230:
 06A8                   .dbline 369
 06A8 89E0              ldi R24,9
 06AA 8617              cp R24,R22
 06AC 30F7              brsh L227
 06AE           X55:
 06AE           L224:
 06AE                   .dbline 368
 06AE 4395              inc R20
 06B0           L226:
 06B0                   .dbline 368
 06B0 4230              cpi R20,2
 06B2 08F3              brlo L223
 06B4           X56:
 06B4                   .dbline 372
 06B4           ;                                                                               
 06B4           ;                                                                       memset(resIOJudge,0,sizeof(uchar)*9);
 06B4 89E0              ldi R24,9
 06B6 90E0              ldi R25,0
 06B8 9983              std y+1,R25
 06BA 8883              std y+0,R24
 06BC 2227              clr R18
 06BE 3327              clr R19
 06C0 00E0              ldi R16,<_resIOJudge
 06C2 10E0              ldi R17,>_resIOJudge
 06C4 0E940000          xcall _memset
 06C8                   .dbline 373
 06C8           ;                                                                       OPJudje(0x00,infoMal_student.weibolu,8);
 06C8 88E0              ldi R24,8
 06CA 8883              std y+0,R24
 06CC 20910200          lds R18,_infoMal_student+2
 06D0 0027              clr R16
 06D2 0E940000          xcall _OPJudje
 06D6                   .dbline 374
 06D6           ;                                                                       reaptRes();
 06D6 26DD              xcall _reaptRes
 06D8                   .dbline 376
 06D8           ;                                                                                                                                               
 06D8           ;                                                                       break;  
 06D8 EFC0              xjmp L187
 06DA           L234:
 06DA                   .dbline 378
 06DA           ;                                                                       
 06DA           ;                                       case 0x30:              for(loopa = 0;loopa < 3;loopa ++)                                                                //电饭煲，3个设故点
 06DA 4427              clr R20
 06DC 0FC0              xjmp L238
 06DE           L235:
 06DE                   .dbline 379
 06DE           ;                                                                               if(ITFR_BUF[loopa+2] == '1')dianfanbao_IO('S',loopa+1);
 06DE 80E0              ldi R24,<_UART0_RxBuff_Queue+2
 06E0 90E0              ldi R25,>_UART0_RxBuff_Queue+2
 06E2 E42F              mov R30,R20
 06E4 FF27              clr R31
 06E6 E80F              add R30,R24
 06E8 F91F              adc R31,R25
 06EA 8081              ldd R24,z+0
 06EC 8133              cpi R24,49
 06EE 29F4              brne L239
 06F0           X57:
 06F0                   .dbline 379
 06F0 242F              mov R18,R20
 06F2 2F5F              subi R18,255    ; addi 1
 06F4 03E5              ldi R16,83
 06F6 0E940000          xcall _dianfanbao_IO
 06FA           L239:
 06FA           L236:
 06FA                   .dbline 378
 06FA 4395              inc R20
 06FC           L238:
 06FC                   .dbline 378
 06FC 4330              cpi R20,3
 06FE 78F3              brlo L235
 0700           X58:
 0700                   .dbline 381
 0700           ;                                                                               
 0700           ;                                                                       OPJudje(infoMal_teacher.dianfanbao,infoMal_student.dianfanbao,5);       
 0700 85E0              ldi R24,5
 0702 8883              std y+0,R24
 0704 20910100          lds R18,_infoMal_student+1
 0708 00910100          lds R16,_infoMal_teacher+1
 070C 0E940000          xcall _OPJudje
 0710                   .dbline 382
 0710           ;                                                                       for(loopa = 0;loopa < 3;loopa ++)                                                       
 0710 4427              clr R20
 0712 1DC0              xjmp L247
 0714           L244:
 0714                   .dbline 383
 0714           ;                                                                           for(loopb = 5;loopb <= 7;loopb ++)                                                                          //5-7
 0714 65E0              ldi R22,5
 0716 17C0              xjmp L251
 0718           L248:
 0718                   .dbline 384
 0718           ;                                                                                   if(resIOJudge[loopa] == loopb)ITFR_PUTS((char*)ITFR_CMD[loopb-1]);
 0718 80E0              ldi R24,<_resIOJudge
 071A 90E0              ldi R25,>_resIOJudge
 071C E42F              mov R30,R20
 071E FF27              clr R31
 0720 E80F              add R30,R24
 0722 F91F              adc R31,R25
 0724 2080              ldd R2,z+0
 0726 2616              cp R2,R22
 0728 69F4              brne L252
 072A           X59:
 072A                   .dbline 384
 072A 80E0              ldi R24,<_ITFR_CMD
 072C 90E0              ldi R25,>_ITFR_CMD
 072E E62F              mov R30,R22
 0730 FF27              clr R31
 0732 3197              sbiw R30,1
 0734 EE0F              lsl R30
 0736 FF1F              rol R31
 0738 E80F              add R30,R24
 073A F91F              adc R31,R25
 073C 0081              ldd R16,z+0
 073E 1181              ldd R17,z+1
 0740 0E940000          xcall _puts0
 0744           L252:
 0744           L249:
 0744                   .dbline 383
 0744 6395              inc R22
 0746           L251:
 0746                   .dbline 383
 0746 87E0              ldi R24,7
 0748 8617              cp R24,R22
 074A 30F7              brsh L248
 074C           X60:
 074C           L245:
 074C                   .dbline 382
 074C 4395              inc R20
 074E           L247:
 074E                   .dbline 382
 074E 4330              cpi R20,3
 0750 08F3              brlo L244
 0752           X61:
 0752                   .dbline 386
 0752           ;                                                                       
 0752           ;                                                                       memset(resIOJudge,0,sizeof(uchar)*9);   
 0752 89E0              ldi R24,9
 0754 90E0              ldi R25,0
 0756 9983              std y+1,R25
 0758 8883              std y+0,R24
 075A 2227              clr R18
 075C 3327              clr R19
 075E 00E0              ldi R16,<_resIOJudge
 0760 10E0              ldi R17,>_resIOJudge
 0762 0E940000          xcall _memset
 0766                   .dbline 387
 0766           ;                                                                       OPJudje(0x00,infoMal_student.dianfanbao,5);
 0766 85E0              ldi R24,5
 0768 8883              std y+0,R24
 076A 20910100          lds R18,_infoMal_student+1
 076E 0027              clr R16
 0770 0E940000          xcall _OPJudje
 0774                   .dbline 388
 0774           ;                                                                       reaptRes();
 0774 D7DC              xcall _reaptRes
 0776                   .dbline 390
 0776           ;                               
 0776           ;                                                                       break;
 0776 A0C0              xjmp L187
 0778           L255:
 0778                   .dbline 392
 0778           ;                                                                       
 0778           ;                                       case 0x40:              for(loopa = 0;loopa < 3;loopa ++)                                                                //洗衣机，3个设故点
 0778 4427              clr R20
 077A 0FC0              xjmp L259
 077C           L256:
 077C                   .dbline 393
 077C           ;                                                                               if(ITFR_BUF[loopa+2] == '1')xiyiji_IO('S',loopa+1);
 077C 80E0              ldi R24,<_UART0_RxBuff_Queue+2
 077E 90E0              ldi R25,>_UART0_RxBuff_Queue+2
 0780 E42F              mov R30,R20
 0782 FF27              clr R31
 0784 E80F              add R30,R24
 0786 F91F              adc R31,R25
 0788 8081              ldd R24,z+0
 078A 8133              cpi R24,49
 078C 29F4              brne L260
 078E           X62:
 078E                   .dbline 393
 078E 242F              mov R18,R20
 0790 2F5F              subi R18,255    ; addi 1
 0792 03E5              ldi R16,83
 0794 0E940000          xcall _xiyiji_IO
 0798           L260:
 0798           L257:
 0798                   .dbline 392
 0798 4395              inc R20
 079A           L259:
 079A                   .dbline 392
 079A 4330              cpi R20,3
 079C 78F3              brlo L256
 079E           X63:
 079E                   .dbline 395
 079E           ;                                                                               
 079E           ;                                                                       OPJudje(infoMal_teacher.xiyiji,infoMal_student.xiyiji,12);              
 079E 8CE0              ldi R24,12
 07A0 8883              std y+0,R24
 07A2 20910400          lds R18,_infoMal_student+4
 07A6 00910400          lds R16,_infoMal_teacher+4
 07AA 0E940000          xcall _OPJudje
 07AE                   .dbline 396
 07AE           ;                                                                       for(loopa = 0;loopa < 3;loopa ++)                                                               
 07AE 4427              clr R20
 07B0 1DC0              xjmp L268
 07B2           L265:
 07B2                   .dbline 397
 07B2           ;                                                                           for(loopb = 12;loopb <= 14;loopb ++)                                                                        //12-14
 07B2 6CE0              ldi R22,12
 07B4 17C0              xjmp L272
 07B6           L269:
 07B6                   .dbline 398
 07B6           ;                                                                                   if(resIOJudge[loopa] == loopb)ITFR_PUTS((char*)ITFR_CMD[loopb-1]);
 07B6 80E0              ldi R24,<_resIOJudge
 07B8 90E0              ldi R25,>_resIOJudge
 07BA E42F              mov R30,R20
 07BC FF27              clr R31
 07BE E80F              add R30,R24
 07C0 F91F              adc R31,R25
 07C2 2080              ldd R2,z+0
 07C4 2616              cp R2,R22
 07C6 69F4              brne L273
 07C8           X64:
 07C8                   .dbline 398
 07C8 80E0              ldi R24,<_ITFR_CMD
 07CA 90E0              ldi R25,>_ITFR_CMD
 07CC E62F              mov R30,R22
 07CE FF27              clr R31
 07D0 3197              sbiw R30,1
 07D2 EE0F              lsl R30
 07D4 FF1F              rol R31
 07D6 E80F              add R30,R24
 07D8 F91F              adc R31,R25
 07DA 0081              ldd R16,z+0
 07DC 1181              ldd R17,z+1
 07DE 0E940000          xcall _puts0
 07E2           L273:
 07E2           L270:
 07E2                   .dbline 397
 07E2 6395              inc R22
 07E4           L272:
 07E4                   .dbline 397
 07E4 8EE0              ldi R24,14
 07E6 8617              cp R24,R22
 07E8 30F7              brsh L269
 07EA           X65:
 07EA           L266:
 07EA                   .dbline 396
 07EA 4395              inc R20
 07EC           L268:
 07EC                   .dbline 396
 07EC 4330              cpi R20,3
 07EE 08F3              brlo L265
 07F0           X66:
 07F0                   .dbline 400
 07F0           ;                                                                               
 07F0           ;                                                                       memset(resIOJudge,0,sizeof(uchar)*9);
 07F0 89E0              ldi R24,9
 07F2 90E0              ldi R25,0
 07F4 9983              std y+1,R25
 07F6 8883              std y+0,R24
 07F8 2227              clr R18
 07FA 3327              clr R19
 07FC 00E0              ldi R16,<_resIOJudge
 07FE 10E0              ldi R17,>_resIOJudge
 0800 0E940000          xcall _memset
 0804                   .dbline 401
 0804           ;                                                                       OPJudje(0x00,infoMal_student.xiyiji,12);
 0804 8CE0              ldi R24,12
 0806 8883              std y+0,R24
 0808 20910400          lds R18,_infoMal_student+4
 080C 0027              clr R16
 080E 0E940000          xcall _OPJudje
 0812                   .dbline 402
 0812           ;                                                                       reaptRes();
 0812 88DC              xcall _reaptRes
 0814                   .dbline 404
 0814           ;                                                                       
 0814           ;                                                                       break;
 0814 51C0              xjmp L187
 0816           L276:
 0816                   .dbline 406
 0816           ;                                                                       
 0816           ;                                       case 0x50:              for(loopa = 0;loopa < 2;loopa ++)                                                                //消毒柜，2个设故点
 0816 4427              clr R20
 0818 0FC0              xjmp L280
 081A           L277:
 081A                   .dbline 407
 081A           ;                                                                               if(ITFR_BUF[loopa+2] == '1')xiaodugui_IO('S',loopa+1);
 081A 80E0              ldi R24,<_UART0_RxBuff_Queue+2
 081C 90E0              ldi R25,>_UART0_RxBuff_Queue+2
 081E E42F              mov R30,R20
 0820 FF27              clr R31
 0822 E80F              add R30,R24
 0824 F91F              adc R31,R25
 0826 8081              ldd R24,z+0
 0828 8133              cpi R24,49
 082A 29F4              brne L281
 082C           X67:
 082C                   .dbline 407
 082C 242F              mov R18,R20
 082E 2F5F              subi R18,255    ; addi 1
 0830 03E5              ldi R16,83
 0832 0E940000          xcall _xiaodugui_IO
 0836           L281:
 0836           L278:
 0836                   .dbline 406
 0836 4395              inc R20
 0838           L280:
 0838                   .dbline 406
 0838 4230              cpi R20,2
 083A 78F3              brlo L277
 083C           X68:
 083C                   .dbline 409
 083C           ;                                                                               
 083C           ;                                                                       OPJudje(infoMal_teacher.xiaodugui,infoMal_student.xiaodugui,10);                
 083C 8AE0              ldi R24,10
 083E 8883              std y+0,R24
 0840 20910300          lds R18,_infoMal_student+3
 0844 00910300          lds R16,_infoMal_teacher+3
 0848 0E940000          xcall _OPJudje
 084C                   .dbline 410
 084C           ;                                                                       for(loopa = 0;loopa < 2;loopa ++)                               
 084C 4427              clr R20
 084E 1DC0              xjmp L289
 0850           L286:
 0850                   .dbline 411
 0850           ;                                                                               for(loopb = 10;loopb <= 11;loopb ++)                                                                    //10-11
 0850 6AE0              ldi R22,10
 0852 17C0              xjmp L293
 0854           L290:
 0854                   .dbline 412
 0854           ;                                                                                       if(resIOJudge[loopa] == loopb)ITFR_PUTS((char*)ITFR_CMD[loopb-1]);
 0854 80E0              ldi R24,<_resIOJudge
 0856 90E0              ldi R25,>_resIOJudge
 0858 E42F              mov R30,R20
 085A FF27              clr R31
 085C E80F              add R30,R24
 085E F91F              adc R31,R25
 0860 2080              ldd R2,z+0
 0862 2616              cp R2,R22
 0864 69F4              brne L294
 0866           X69:
 0866                   .dbline 412
 0866 80E0              ldi R24,<_ITFR_CMD
 0868 90E0              ldi R25,>_ITFR_CMD
 086A E62F              mov R30,R22
 086C FF27              clr R31
 086E 3197              sbiw R30,1
 0870 EE0F              lsl R30
 0872 FF1F              rol R31
 0874 E80F              add R30,R24
 0876 F91F              adc R31,R25
 0878 0081              ldd R16,z+0
 087A 1181              ldd R17,z+1
 087C 0E940000          xcall _puts0
 0880           L294:
 0880           L291:
 0880                   .dbline 411
 0880 6395              inc R22
 0882           L293:
 0882                   .dbline 411
 0882 8BE0              ldi R24,11
 0884 8617              cp R24,R22
 0886 30F7              brsh L290
 0888           X70:
 0888           L287:
 0888                   .dbline 410
 0888 4395              inc R20
 088A           L289:
 088A                   .dbline 410
 088A 4230              cpi R20,2
 088C 08F3              brlo L286
 088E           X71:
 088E                   .dbline 414
 088E           ;                                                                               
 088E           ;                                                                       memset(resIOJudge,0,sizeof(uchar)*9);
 088E 89E0              ldi R24,9
 0890 90E0              ldi R25,0
 0892 9983              std y+1,R25
 0894 8883              std y+0,R24
 0896 2227              clr R18
 0898 3327              clr R19
 089A 00E0              ldi R16,<_resIOJudge
 089C 10E0              ldi R17,>_resIOJudge
 089E 0E940000          xcall _memset
 08A2                   .dbline 415
 08A2           ;                                                                       OPJudje(0x00,infoMal_student.xiaodugui,10);
 08A2 8AE0              ldi R24,10
 08A4 8883              std y+0,R24
 08A6 20910300          lds R18,_infoMal_student+3
 08AA 0027              clr R16
 08AC 0E940000          xcall _OPJudje
 08B0                   .dbline 416
 08B0           ;                                                                       reaptRes();
 08B0 39DC              xcall _reaptRes
 08B2                   .dbline 426
 08B2           ; 
 08B2           ;                                                                       //ITFR_PUTS("Result xiaodugui hand up");                //测试输出
 08B2           ;                                                                       //putchar1(resIOJudge[0]+0x30);                                 //测试比较结果输出
 08B2           ;                                                                       //putchar1(resIOJudge[1]+0x30);
 08B2           ;                                                                       //putchar1(resIOJudge[2]+0x30);
 08B2           ;                                                                       //putchar1(resIOJudge[3]+0x30);
 08B2           ;                                                                       //putchar1(resIOJudge[6]+0x30);
 08B2           ;                                                                       //putchar1(resIOJudge[7]+0x30);
 08B2           ;                                                                       //putchar1(resIOJudge[8]+0x30);                                                                         
 08B2           ;                                                                       break;
 08B2 02C0              xjmp L187
 08B4           L297:
 08B4                   .dbline 428
 08B4           ;                                                                       
 08B4           ;                                       case 0x0f:              IOReinstate();                                                                  //结果提交完成，设备复位后重新开放选择界面
 08B4 0E940000          xcall _IOReinstate
 08B8                   .dbline 436
 08B8           ;                                                                       //ITFR_PUTS("device_select.dfs.txt=\"0\"");             //冰封所有选项，等待老师重新设故
 08B8           ;                                                                       //ITFR_PUTS("device_select.wbl.txt=\"0\"");
 08B8           ;                                                                       //ITFR_PUTS("device_select.dfb.txt=\"0\"");
 08B8           ;                                                                       //ITFR_PUTS("device_select.xyj.txt=\"0\"");
 08B8           ;                                                                       //ITFR_PUTS("device_select.xdg.txt=\"0\"");                                                             
 08B8           ;                                                                       //ITFR_PUTS("page device_select");                              //开放设故选择界面
 08B8           ;                                                                       
 08B8           ;                                       default:                break;
 08B8           L187:
 08B8                   .dbline 439
 08B8           ;                        }
 08B8           ;                        
 08B8           ;                        if(!strcmp(userMe_temp.userID,userMe.userID) && !strcmp(userMe_temp.password,userMe.password)){        //用户名及密码验证
 08B8 20E0              ldi R18,<_userMe
 08BA 30E0              ldi R19,>_userMe
 08BC 00E0              ldi R16,<_userMe_temp
 08BE 10E0              ldi R17,>_userMe_temp
 08C0 0E940000          xcall _strcmp
 08C4 0030              cpi R16,0
 08C6 0107              cpc R16,R17
 08C8 81F4              brne L303
 08CA           X72:
 08CA 20E0              ldi R18,<_userMe+9
 08CC 30E0              ldi R19,>_userMe+9
 08CE 00E0              ldi R16,<_userMe_temp+9
 08D0 10E0              ldi R17,>_userMe_temp+9
 08D2 0E940000          xcall _strcmp
 08D6 0030              cpi R16,0
 08D8 0107              cpc R16,R17
 08DA 39F4              brne L303
 08DC           X73:
 08DC                   .dbline 439
 08DC                   .dbline 441
 08DC           ;                                       
 08DC           ;                                       ITFR_PUTS("page device_select");        //开放设故选择界面
 08DC 00E0              ldi R16,<L109
 08DE 10E0              ldi R17,>L109
 08E0 0E940000          xcall _puts0
 08E4                   .dbline 442
 08E4           ;                                       UI_pt = 0x02;
 08E4 82E0              ldi R24,2
 08E6 80936A00          sts _UI_pt,R24
 08EA                   .dbline 443
 08EA           ;                        }
 08EA           L303:
 08EA                   .dbline 444
 08EA           ;                        memset(ITFR_BUF,0,sizeof(uchar)*UART1_RX_BUFFER_SIZE);           //屏幕处理缓存清空
 08EA 8EE1              ldi R24,30
 08EC 90E0              ldi R25,0
 08EE 9983              std y+1,R25
 08F0 8883              std y+0,R24
 08F2 2227              clr R18
 08F4 3327              clr R19
 08F6 00E0              ldi R16,<_UART0_RxBuff_Queue
 08F8 10E0              ldi R17,>_UART0_RxBuff_Queue
 08FA 0E940000          xcall _memset
 08FE                   .dbline 445
 08FE           ;                        memset(userMe_temp.password,0,sizeof(uchar)*9);                          //用户输入密码清空
 08FE 89E0              ldi R24,9
 0900 90E0              ldi R25,0
 0902 9983              std y+1,R25
 0904 8883              std y+0,R24
 0906 2227              clr R18
 0908 3327              clr R19
 090A 00E0              ldi R16,<_userMe_temp+9
 090C 10E0              ldi R17,>_userMe_temp+9
 090E 0E940000          xcall _memset
 0912                   .dbline 446
 0912           ;                        memset(resIOJudge,0,sizeof(uchar)*9);                                            //学生提交与老师设故仲裁结果清空
 0912 89E0              ldi R24,9
 0914 90E0              ldi R25,0
 0916 9983              std y+1,R25
 0918 8883              std y+0,R24
 091A 2227              clr R18
 091C 3327              clr R19
 091E 00E0              ldi R16,<_resIOJudge
 0920 10E0              ldi R17,>_resIOJudge
 0922 0E940000          xcall _memset
 0926                   .dbline 447
 0926           ;               }
 0926           L184:
 0926                   .dbline 450
 0926           ;               
 0926           ;         /*********************************************PROCESSING_HEARTBEAT*******************************************/
 0926           ;               if(heartBeat_A > 300000){
 0926 80EE              ldi R24,224
 0928 93E9              ldi R25,147
 092A A4E0              ldi R26,4
 092C B0E0              ldi R27,0
 092E 2E80              ldd R2,y+6
 0930 3F80              ldd R3,y+7
 0932 4884              ldd R4,y+8
 0934 5984              ldd R5,y+9
 0936 8215              cp R24,R2
 0938 9305              cpc R25,R3
 093A A405              cpc R26,R4
 093C B505              cpc R27,R5
 093E 50F4              brsh L308
 0940           X74:
 0940                   .dbline 450
 0940                   .dbline 452
 0940           ;               
 0940           ;                       heartBeat_A = 0;           
 0940 80E0              ldi R24,0
 0942 8E83              std y+6+0,R24
 0944 8F83              std y+6+1,R24
 0946 8887              std y+6+2,R24
 0948 8987              std y+6+3,R24
 094A                   .dbline 453
 094A           ;                       WIFI_PUTS((char*)cntConfirm);
 094A 00E0              ldi R16,<_cntConfirm
 094C 10E0              ldi R17,>_cntConfirm
 094E 0E940000          xcall _puts1
 0952                   .dbline 454
 0952           ;               }else heartBeat_A ++;
 0952 10C0              xjmp L309
 0954           L308:
 0954                   .dbline 454
 0954 81E0              ldi R24,1
 0956 90E0              ldi R25,0
 0958 A0E0              ldi R26,0
 095A B0E0              ldi R27,0
 095C 2E80              ldd R2,y+6
 095E 3F80              ldd R3,y+7
 0960 4884              ldd R4,y+8
 0962 5984              ldd R5,y+9
 0964 280E              add R2,R24
 0966 391E              adc R3,R25
 0968 4A1E              adc R4,R26
 096A 5B1E              adc R5,R27
 096C 2E82              std y+6,R2
 096E 3F82              std y+7,R3
 0970 4886              std y+8,R4
 0972 5986              std y+9,R5
 0974           L309:
 0974                   .dbline 456
 0974           ;               
 0974           ;               if(heartBeat_B > 1000000){
 0974 80E4              ldi R24,64
 0976 92E4              ldi R25,66
 0978 AFE0              ldi R26,15
 097A B0E0              ldi R27,0
 097C 2A80              ldd R2,y+2
 097E 3B80              ldd R3,y+3
 0980 4C80              ldd R4,y+4
 0982 5D80              ldd R5,y+5
 0984 8215              cp R24,R2
 0986 9305              cpc R25,R3
 0988 A405              cpc R26,R4
 098A B505              cpc R27,R5
 098C 38F4              brsh L310
 098E           X75:
 098E                   .dbline 456
 098E                   .dbline 458
 098E           ;                       
 098E           ;                       heartBeat_B = 0;
 098E 80E0              ldi R24,0
 0990 8A83              std y+2+0,R24
 0992 8B83              std y+2+1,R24
 0994 8C83              std y+2+2,R24
 0996 8D83              std y+2+3,R24
 0998                   .dbline 459
 0998           ;                       wifiReconnect();
 0998 54DC              xcall _wifiReconnect
 099A                   .dbline 460
 099A           ;               }else heartBeat_B ++;
 099A 10C0              xjmp L311
 099C           L310:
 099C                   .dbline 460
 099C 81E0              ldi R24,1
 099E 90E0              ldi R25,0
 09A0 A0E0              ldi R26,0
 09A2 B0E0              ldi R27,0
 09A4 2A80              ldd R2,y+2
 09A6 3B80              ldd R3,y+3
 09A8 4C80              ldd R4,y+4
 09AA 5D80              ldd R5,y+5
 09AC 280E              add R2,R24
 09AE 391E              adc R3,R25
 09B0 4A1E              adc R4,R26
 09B2 5B1E              adc R5,R27
 09B4 2A82              std y+2,R2
 09B6 3B82              std y+3,R3
 09B8 4C82              std y+4,R4
 09BA 5D82              std y+5,R5
 09BC           L311:
 09BC                   .dbline 461
 09BC           ;       }
 09BC           L112:
 09BC                   .dbline 257
 09BC 8BCC              xjmp L111
 09BE           X76:
 09BE                   .dbline -2
 09BE           L110:
 09BE                   .dbline 0 ; func end
 09BE 2A96              adiw R28,10
 09C0 0C940000          xjmp pop_xgsetF000
 09C4                   .dbsym l heartBeat_A 6 l
 09C4                   .dbsym l heartBeat_B 2 l
 09C4                   .dbsym r loopa 20 c
 09C4                   .dbsym r loopb 22 c
 09C4                   .dbend
 09C4                   .dbfunc e main _main fV
                        .even
 09C4           _main::
 09C4                   .dbline -1
 09C4                   .dbline 464
 09C4           ; }
 09C4           ; 
 09C4           ; void main(void){
 09C4                   .dbline 468
 09C4           ; 
 09C4           ;       
 09C4           ;       
 09C4           ;       bspInit();
 09C4 D3DB              xcall _bspInit
 09C6                   .dbline 474
 09C6           ;       
 09C6           ;       //WIFI_PUTS("i'm WIFI test start!!!");
 09C6           ;       //ITFR_PUTS("i'm ITFR test start!!!");
 09C6           ;       //IO_test();
 09C6           ;       
 09C6           ;       thread_main();
 09C6                   .dbline -2
 09C6           L312:
 09C6                   .dbline 0 ; func end
 09C6 78CC              xjmp _thread_main
 09C8                   .dbend
                        .area data(ram, con, rel)
 006B                   .dbfile C:\Users\Administrator\Desktop\塔城设故板\Software\user_main.c
 006B           L183:
 006B                   .blkb 26
                        .area idata
 006B 6465766963655F73656C6563742E7879  .byte 'd,'e,'v,'i,'c,'e,95,'s,'e,'l,'e,'c,'t,46,'x,'y
 007B 6A2E7478743D22312200      .byte 'j,46,'t,'x,'t,61,34,49,34,0
                        .area data(ram, con, rel)
 0085                   .dbfile C:\Users\Administrator\Desktop\塔城设故板\Software\user_main.c
 0085           L179:
 0085                   .blkb 26
                        .area idata
 0085 6465766963655F73656C6563742E7864  .byte 'd,'e,'v,'i,'c,'e,95,'s,'e,'l,'e,'c,'t,46,'x,'d
 0095 672E7478743D22312200      .byte 'g,46,'t,'x,'t,61,34,49,34,0
                        .area data(ram, con, rel)
 009F                   .dbfile C:\Users\Administrator\Desktop\塔城设故板\Software\user_main.c
 009F           L175:
 009F                   .blkb 26
                        .area idata
 009F 6465766963655F73656C6563742E7762  .byte 'd,'e,'v,'i,'c,'e,95,'s,'e,'l,'e,'c,'t,46,'w,'b
 00AF 6C2E7478743D22312200      .byte 'l,46,'t,'x,'t,61,34,49,34,0
                        .area data(ram, con, rel)
 00B9                   .dbfile C:\Users\Administrator\Desktop\塔城设故板\Software\user_main.c
 00B9           L171:
 00B9                   .blkb 26
                        .area idata
 00B9 6465766963655F73656C6563742E6466  .byte 'd,'e,'v,'i,'c,'e,95,'s,'e,'l,'e,'c,'t,46,'d,'f
 00C9 622E7478743D22312200      .byte 'b,46,'t,'x,'t,61,34,49,34,0
                        .area data(ram, con, rel)
 00D3                   .dbfile C:\Users\Administrator\Desktop\塔城设故板\Software\user_main.c
 00D3           L167:
 00D3                   .blkb 26
                        .area idata
 00D3 6465766963655F73656C6563742E6466  .byte 'd,'e,'v,'i,'c,'e,95,'s,'e,'l,'e,'c,'t,46,'d,'f
 00E3 732E7478743D22312200      .byte 's,46,'t,'x,'t,61,34,49,34,0
                        .area data(ram, con, rel)
 00ED                   .dbfile C:\Users\Administrator\Desktop\塔城设故板\Software\user_main.c
 00ED           L136:
 00ED                   .blkb 26
                        .area idata
 00ED 6465766963655F73656C6563742E7879  .byte 'd,'e,'v,'i,'c,'e,95,'s,'e,'l,'e,'c,'t,46,'x,'y
 00FD 6A2E7478743D22302200      .byte 'j,46,'t,'x,'t,61,34,48,34,0
                        .area data(ram, con, rel)
 0107                   .dbfile C:\Users\Administrator\Desktop\塔城设故板\Software\user_main.c
 0107           L135:
 0107                   .blkb 26
                        .area idata
 0107 6465766963655F73656C6563742E7864  .byte 'd,'e,'v,'i,'c,'e,95,'s,'e,'l,'e,'c,'t,46,'x,'d
 0117 672E7478743D22302200      .byte 'g,46,'t,'x,'t,61,34,48,34,0
                        .area data(ram, con, rel)
 0121                   .dbfile C:\Users\Administrator\Desktop\塔城设故板\Software\user_main.c
 0121           L134:
 0121                   .blkb 26
                        .area idata
 0121 6465766963655F73656C6563742E7762  .byte 'd,'e,'v,'i,'c,'e,95,'s,'e,'l,'e,'c,'t,46,'w,'b
 0131 6C2E7478743D22302200      .byte 'l,46,'t,'x,'t,61,34,48,34,0
                        .area data(ram, con, rel)
 013B                   .dbfile C:\Users\Administrator\Desktop\塔城设故板\Software\user_main.c
 013B           L133:
 013B                   .blkb 26
                        .area idata
 013B 6465766963655F73656C6563742E6466  .byte 'd,'e,'v,'i,'c,'e,95,'s,'e,'l,'e,'c,'t,46,'d,'f
 014B 622E7478743D22302200      .byte 'b,46,'t,'x,'t,61,34,48,34,0
                        .area data(ram, con, rel)
 0155                   .dbfile C:\Users\Administrator\Desktop\塔城设故板\Software\user_main.c
 0155           L132:
 0155                   .blkb 26
                        .area idata
 0155 6465766963655F73656C6563742E6466  .byte 'd,'e,'v,'i,'c,'e,95,'s,'e,'l,'e,'c,'t,46,'d,'f
 0165 732E7478743D22302200      .byte 's,46,'t,'x,'t,61,34,48,34,0
                        .area data(ram, con, rel)
 016F                   .dbfile C:\Users\Administrator\Desktop\塔城设故板\Software\user_main.c
 016F           L109:
 016F                   .blkb 19
                        .area idata
 016F 70616765206465766963655F73656C65  .byte 'p,'a,'g,'e,32,'d,'e,'v,'i,'c,'e,95,'s,'e,'l,'e
 017F 637400            .byte 'c,'t,0
                        .area data(ram, con, rel)
 0182                   .dbfile C:\Users\Administrator\Desktop\塔城设故板\Software\user_main.c
 0182           L98:
 0182                   .blkb 15
                        .area idata
 0182 70616765207265636F6E6E65637400    .byte 'p,'a,'g,'e,32,'r,'e,'c,'o,'n,'n,'e,'c,'t,0
                        .area data(ram, con, rel)
 0191                   .dbfile C:\Users\Administrator\Desktop\塔城设故板\Software\user_main.c
 0191           L96:
 0191                   .blkb 10
                        .area idata
 0191 70616765206D61696E00      .byte 'p,'a,'g,'e,32,'m,'a,'i,'n,0
                        .area data(ram, con, rel)
 019B                   .dbfile C:\Users\Administrator\Desktop\塔城设故板\Software\user_main.c
 019B           L79:
 019B                   .blkb 16
                        .area idata
 019B 7061676520636F6E6E656374696E6700  .byte 'p,'a,'g,'e,32,'c,'o,'n,'n,'e,'c,'t,'i,'n,'g,0
                        .area data(ram, con, rel)
 01AB                   .dbfile C:\Users\Administrator\Desktop\塔城设故板\Software\user_main.c
 01AB           L33:
 01AB                   .blkb 12
                        .area idata
 01AB 61742B7265636F6E6E3D3100  .byte 'a,'t,43,'r,'e,'c,'o,'n,'n,61,49,0
                        .area data(ram, con, rel)
 01B7                   .dbfile C:\Users\Administrator\Desktop\塔城设故板\Software\user_main.c
 01B7           L32:
 01B7                   .blkb 16
                        .area idata
 01B7 61742B6E65745F636F6D6D69743D3100  .byte 'a,'t,43,'n,'e,'t,95,'c,'o,'m,'m,'i,'t,61,49,0
                        .area data(ram, con, rel)
 01C7                   .dbfile C:\Users\Administrator\Desktop\塔城设故板\Software\user_main.c
 01C7           L31:
 01C7                   .blkb 22
                        .area idata
 01C7 61742B756172747061636B74696D656F  .byte 'a,'t,43,'u,'a,'r,'t,'p,'a,'c,'k,'t,'i,'m,'e,'o
 01D7 75743D313000      .byte 'u,'t,61,49,48,0
                        .area data(ram, con, rel)
 01DD                   .dbfile C:\Users\Administrator\Desktop\塔城设故板\Software\user_main.c
 01DD           L30:
 01DD                   .blkb 18
                        .area idata
 01DD 61742B756172747061636B6C656E3D36  .byte 'a,'t,43,'u,'a,'r,'t,'p,'a,'c,'k,'l,'e,'n,61,54
 01ED 3400              .byte 52,0
                        .area data(ram, con, rel)
 01EF                   .dbfile C:\Users\Administrator\Desktop\塔城设故板\Software\user_main.c
 01EF           L29:
 01EF                   .blkb 19
                        .area idata
 01EF 61742B756172743D393630302C382C6E  .byte 'a,'t,43,'u,'a,'r,'t,61,57,54,48,48,44,56,44,'n
 01FF 2C3100            .byte 44,49,0
                        .area data(ram, con, rel)
 0202                   .dbfile C:\Users\Administrator\Desktop\塔城设故板\Software\user_main.c
 0202           L28:
 0202                   .blkb 13
                        .area idata
 0202 61742B74696D656F75743D3000        .byte 'a,'t,43,'t,'i,'m,'e,'o,'u,'t,61,48,0
                        .area data(ram, con, rel)
 020F                   .dbfile C:\Users\Administrator\Desktop\塔城设故板\Software\user_main.c
 020F           L27:
 020F                   .blkb 15
                        .area idata
 020F 61742B434C706F72743D3132333400    .byte 'a,'t,43,'C,'L,'p,'o,'r,'t,61,49,50,51,52,0
                        .area data(ram, con, rel)
 021E                   .dbfile C:\Users\Administrator\Desktop\塔城设故板\Software\user_main.c
 021E           L26:
 021E                   .blkb 19
                        .area idata
 021E 61742B72656D6F7465706F72743D3830  .byte 'a,'t,43,'r,'e,'m,'o,'t,'e,'p,'o,'r,'t,61,56,48
 022E 383800            .byte 56,56,0
                        .area data(ram, con, rel)
 0231                   .dbfile C:\Users\Administrator\Desktop\塔城设故板\Software\user_main.c
 0231           L25:
 0231                   .blkb 23
                        .area idata
 0231 61742B72656D6F746569703D31302E32  .byte 'a,'t,43,'r,'e,'m,'o,'t,'e,'i,'p,61,49,48,46,50
 0241 2E382E31333900    .byte 46,56,46,49,51,57,0
                        .area data(ram, con, rel)
 0248                   .dbfile C:\Users\Administrator\Desktop\塔城设故板\Software\user_main.c
 0248           L24:
 0248                   .blkb 15
                        .area idata
 0248 61742B6D6F64653D636C69656E7400    .byte 'a,'t,43,'m,'o,'d,'e,61,'c,'l,'i,'e,'n,'t,0
                        .area data(ram, con, rel)
 0257                   .dbfile C:\Users\Administrator\Desktop\塔城设故板\Software\user_main.c
 0257           L23:
 0257                   .blkb 17
                        .area idata
 0257 61742B72656D6F746570726F3D746370  .byte 'a,'t,43,'r,'e,'m,'o,'t,'e,'p,'r,'o,61,'t,'c,'p
 0267 00                .byte 0
                        .area data(ram, con, rel)
 0268                   .dbfile C:\Users\Administrator\Desktop\塔城设故板\Software\user_main.c
 0268           L22:
 0268                   .blkb 39
                        .area idata
 0268 61742B6E65745F646E733D3230322E39  .byte 'a,'t,43,'n,'e,'t,95,'d,'n,'s,61,50,48,50,46,57
 0278 362E3132382E38362C3230322E39362E  .byte 54,46,49,50,56,46,56,54,44,50,48,50,46,57,54,46
 0288 3133342E333300    .byte 49,51,52,46,51,51,0
                        .area data(ram, con, rel)
 028F                   .dbfile C:\Users\Administrator\Desktop\塔城设故板\Software\user_main.c
 028F           L21:
 028F                   .blkb 46
                        .area idata
 028F 61742B6E65745F69703D31302E322E38  .byte 'a,'t,43,'n,'e,'t,95,'i,'p,61,49,48,46,50,46,56
 029F 2E3231322C3235352E3235352E323535  .byte 46,50,49,50,44,50,53,53,46,50,53,53,46,50,53,53
 02AF 2E302C31302E322E382E32353400      .byte 46,48,44,49,48,46,50,46,56,46,50,53,52,0
                        .area data(ram, con, rel)
 02BD                   .dbfile C:\Users\Administrator\Desktop\塔城设故板\Software\user_main.c
 02BD           L20:
 02BD                   .blkb 11
                        .area idata
 02BD 61742B64686370633D3000    .byte 'a,'t,43,'d,'h,'c,'p,'c,61,48,0
                        .area data(ram, con, rel)
 02C8                   .dbfile C:\Users\Administrator\Desktop\塔城设故板\Software\user_main.c
 02C8           L19:
 02C8                   .blkb 43
                        .area idata
 02C8 61742B776966695F636F6E663D475441  .byte 'a,'t,43,'w,'i,'f,'i,95,'c,'o,'n,'f,61,'G,'T,'A
 02D8 323031372C777061777061325F616573  .byte 50,48,49,55,44,'w,'p,'a,'w,'p,'a,50,95,'a,'e,'s
 02E8 2C67746131313436303500    .byte 44,'g,'t,'a,49,49,52,54,48,53,0
                        .area data(ram, con, rel)
 02F3                   .dbfile C:\Users\Administrator\Desktop\塔城设故板\Software\user_main.c
 02F3           L18:
 02F3                   .blkb 11
                        .area idata
 02F3 61742B64686370643D3000    .byte 'a,'t,43,'d,'h,'c,'p,'d,61,48,0
                        .area data(ram, con, rel)
 02FE                   .dbfile C:\Users\Administrator\Desktop\塔城设故板\Software\user_main.c
 02FE           L17:
 02FE                   .blkb 13
                        .area idata
 02FE 61742B6E65746D6F64653D3200        .byte 'a,'t,43,'n,'e,'t,'m,'o,'d,'e,61,50,0
                        .area data(ram, con, rel)
 030B                   .dbfile C:\Users\Administrator\Desktop\塔城设故板\Software\user_main.c
 030B           L16:
 030B                   .blkb 28
                        .area idata
 030B 7265735F786979696A692E78796A5F72  .byte 'r,'e,'s,95,'x,'i,'y,'i,'j,'i,46,'x,'y,'j,95,'r
 031B 6573332E7478743D22302200  .byte 'e,'s,51,46,'t,'x,'t,61,34,48,34,0
                        .area data(ram, con, rel)
 0327                   .dbfile C:\Users\Administrator\Desktop\塔城设故板\Software\user_main.c
 0327           L15:
 0327                   .blkb 28
                        .area idata
 0327 7265735F786979696A692E78796A5F72  .byte 'r,'e,'s,95,'x,'i,'y,'i,'j,'i,46,'x,'y,'j,95,'r
 0337 6573322E7478743D22302200  .byte 'e,'s,50,46,'t,'x,'t,61,34,48,34,0
                        .area data(ram, con, rel)
 0343                   .dbfile C:\Users\Administrator\Desktop\塔城设故板\Software\user_main.c
 0343           L14:
 0343                   .blkb 58
                        .area idata
 0343 7265735F7869616F64756775692E7864  .byte 'r,'e,'s,95,'x,'i,'a,'o,'d,'u,'g,'u,'i,46,'x,'d
 0353 675F726573322E7478743D2230227265  .byte 'g,95,'r,'e,'s,50,46,'t,'x,'t,61,34,48,34,'r,'e
 0363 735F786979696A692E78796A5F726573  .byte 's,95,'x,'i,'y,'i,'j,'i,46,'x,'y,'j,95,'r,'e,'s
 0373 312E7478743D22302200      .byte 49,46,'t,'x,'t,61,34,48,34,0
                        .area data(ram, con, rel)
 037D                   .dbfile C:\Users\Administrator\Desktop\塔城设故板\Software\user_main.c
 037D           L13:
 037D                   .blkb 31
                        .area idata
 037D 7265735F7869616F64756775692E7864  .byte 'r,'e,'s,95,'x,'i,'a,'o,'d,'u,'g,'u,'i,46,'x,'d
 038D 675F726573312E7478743D22302200    .byte 'g,95,'r,'e,'s,49,46,'t,'x,'t,61,34,48,34,0
                        .area data(ram, con, rel)
 039C                   .dbfile C:\Users\Administrator\Desktop\塔城设故板\Software\user_main.c
 039C           L12:
 039C                   .blkb 29
                        .area idata
 039C 7265735F776569626F6C752E77626C5F  .byte 'r,'e,'s,95,'w,'e,'i,'b,'o,'l,'u,46,'w,'b,'l,95
 03AC 726573322E7478743D22302200        .byte 'r,'e,'s,50,46,'t,'x,'t,61,34,48,34,0
                        .area data(ram, con, rel)
 03B9                   .dbfile C:\Users\Administrator\Desktop\塔城设故板\Software\user_main.c
 03B9           L11:
 03B9                   .blkb 29
                        .area idata
 03B9 7265735F776569626F6C752E77626C5F  .byte 'r,'e,'s,95,'w,'e,'i,'b,'o,'l,'u,46,'w,'b,'l,95
 03C9 726573312E7478743D22302200        .byte 'r,'e,'s,49,46,'t,'x,'t,61,34,48,34,0
                        .area data(ram, con, rel)
 03D6                   .dbfile C:\Users\Administrator\Desktop\塔城设故板\Software\user_main.c
 03D6           L10:
 03D6                   .blkb 32
                        .area idata
 03D6 7265735F6469616E66616E62616F2E64  .byte 'r,'e,'s,95,'d,'i,'a,'n,'f,'a,'n,'b,'a,'o,46,'d
 03E6 66625F726573332E7478743D22302200  .byte 'f,'b,95,'r,'e,'s,51,46,'t,'x,'t,61,34,48,34,0
                        .area data(ram, con, rel)
 03F6                   .dbfile C:\Users\Administrator\Desktop\塔城设故板\Software\user_main.c
 03F6           L9:
 03F6                   .blkb 32
                        .area idata
 03F6 7265735F6469616E66616E62616F2E64  .byte 'r,'e,'s,95,'d,'i,'a,'n,'f,'a,'n,'b,'a,'o,46,'d
 0406 66625F726573322E7478743D22302200  .byte 'f,'b,95,'r,'e,'s,50,46,'t,'x,'t,61,34,48,34,0
                        .area data(ram, con, rel)
 0416                   .dbfile C:\Users\Administrator\Desktop\塔城设故板\Software\user_main.c
 0416           L8:
 0416                   .blkb 32
                        .area idata
 0416 7265735F6469616E66616E62616F2E64  .byte 'r,'e,'s,95,'d,'i,'a,'n,'f,'a,'n,'b,'a,'o,46,'d
 0426 66625F726573312E7478743D22302200  .byte 'f,'b,95,'r,'e,'s,49,46,'t,'x,'t,61,34,48,34,0
                        .area data(ram, con, rel)
 0436                   .dbfile C:\Users\Administrator\Desktop\塔城设故板\Software\user_main.c
 0436           L7:
 0436                   .blkb 29
                        .area idata
 0436 7265735F66656E677368616E2E66735F  .byte 'r,'e,'s,95,'f,'e,'n,'g,'s,'h,'a,'n,46,'f,'s,95
 0446 726573342E7478743D22302200        .byte 'r,'e,'s,52,46,'t,'x,'t,61,34,48,34,0
                        .area data(ram, con, rel)
 0453                   .dbfile C:\Users\Administrator\Desktop\塔城设故板\Software\user_main.c
 0453           L6:
 0453                   .blkb 29
                        .area idata
 0453 7265735F66656E677368616E2E66735F  .byte 'r,'e,'s,95,'f,'e,'n,'g,'s,'h,'a,'n,46,'f,'s,95
 0463 726573332E7478743D22302200        .byte 'r,'e,'s,51,46,'t,'x,'t,61,34,48,34,0
                        .area data(ram, con, rel)
 0470                   .dbfile C:\Users\Administrator\Desktop\塔城设故板\Software\user_main.c
 0470           L5:
 0470                   .blkb 29
                        .area idata
 0470 7265735F66656E677368616E2E66735F  .byte 'r,'e,'s,95,'f,'e,'n,'g,'s,'h,'a,'n,46,'f,'s,95
 0480 726573322E7478743D22302200        .byte 'r,'e,'s,50,46,'t,'x,'t,61,34,48,34,0
                        .area data(ram, con, rel)
 048D                   .dbfile C:\Users\Administrator\Desktop\塔城设故板\Software\user_main.c
 048D           L4:
 048D                   .blkb 29
                        .area idata
 048D 7265735F66656E677368616E2E66735F  .byte 'r,'e,'s,95,'f,'e,'n,'g,'s,'h,'a,'n,46,'f,'s,95
 049D 726573312E7478743D22302200        .byte 'r,'e,'s,49,46,'t,'x,'t,61,34,48,34,0
                        .area data(ram, con, rel)
 04AA                   .dbfile C:\Users\Administrator\Desktop\塔城设故板\Software\user_main.c
 04AA           ; 
 04AA           ; }
