                        .module user_main.c
                        .area text(rom, con, rel)
 0000                   .dbfile user_main.c
                        .area data(ram, con, rel)
 0000                   .dbfile user_main.c
 0000           _ITFR_CMD::
 0000                   .blkw 1
                        .area idata
 0000 8604              .word L4
                        .area data(ram, con, rel)
 0002                   .dbfile user_main.c
 0002                   .blkw 1
                        .area idata
 0002 6904              .word L5
                        .area data(ram, con, rel)
 0004                   .dbfile user_main.c
 0004                   .blkw 1
                        .area idata
 0004 4C04              .word L6
                        .area data(ram, con, rel)
 0006                   .dbfile user_main.c
 0006                   .blkw 1
                        .area idata
 0006 2F04              .word L7
                        .area data(ram, con, rel)
 0008                   .dbfile user_main.c
 0008                   .blkw 1
                        .area idata
 0008 0F04              .word L8
                        .area data(ram, con, rel)
 000A                   .dbfile user_main.c
 000A                   .blkw 1
                        .area idata
 000A EF03              .word L9
                        .area data(ram, con, rel)
 000C                   .dbfile user_main.c
 000C                   .blkw 1
                        .area idata
 000C CF03              .word L10
                        .area data(ram, con, rel)
 000E                   .dbfile user_main.c
 000E                   .blkw 1
                        .area idata
 000E B203              .word L11
                        .area data(ram, con, rel)
 0010                   .dbfile user_main.c
 0010                   .blkw 1
                        .area idata
 0010 9503              .word L12
                        .area data(ram, con, rel)
 0012                   .dbfile user_main.c
 0012                   .blkw 1
                        .area idata
 0012 7603              .word L13
                        .area data(ram, con, rel)
 0014                   .dbfile user_main.c
 0014                   .blkw 1
                        .area idata
 0014 5703              .word L14
                        .area data(ram, con, rel)
 0016                   .dbfile user_main.c
 0016                   .blkw 1
                        .area idata
 0016 3B03              .word L15
                        .area data(ram, con, rel)
 0018                   .dbfile user_main.c
 0018                   .blkw 1
                        .area idata
 0018 1F03              .word L16
                        .area data(ram, con, rel)
 001A                   .dbfile user_main.c
 001A                   .blkw 1
                        .area idata
 001A 0303              .word L17
                        .area data(ram, con, rel)
 001C                   .dbfile user_main.c
 001C                   .dbfile E:\My_GTAProject\塔城设故板\Software\user_main.c
 001C                   .dbsym e ITFR_CMD _ITFR_CMD A[28:14]pc
 001C           _WIFI_CMD::
 001C                   .blkw 1
                        .area idata
 001C F602              .word L18
                        .area data(ram, con, rel)
 001E                   .dbfile E:\My_GTAProject\塔城设故板\Software\user_main.c
 001E                   .blkw 1
                        .area idata
 001E EB02              .word L19
                        .area data(ram, con, rel)
 0020                   .dbfile E:\My_GTAProject\塔城设故板\Software\user_main.c
 0020                   .blkw 1
                        .area idata
 0020 C702              .word L20
                        .area data(ram, con, rel)
 0022                   .dbfile E:\My_GTAProject\塔城设故板\Software\user_main.c
 0022                   .blkw 1
                        .area idata
 0022 BC02              .word L21
                        .area data(ram, con, rel)
 0024                   .dbfile E:\My_GTAProject\塔城设故板\Software\user_main.c
 0024                   .blkw 1
                        .area idata
 0024 8A02              .word L22
                        .area data(ram, con, rel)
 0026                   .dbfile E:\My_GTAProject\塔城设故板\Software\user_main.c
 0026                   .blkw 1
                        .area idata
 0026 6B02              .word L23
                        .area data(ram, con, rel)
 0028                   .dbfile E:\My_GTAProject\塔城设故板\Software\user_main.c
 0028                   .blkw 1
                        .area idata
 0028 5A02              .word L24
                        .area data(ram, con, rel)
 002A                   .dbfile E:\My_GTAProject\塔城设故板\Software\user_main.c
 002A                   .blkw 1
                        .area idata
 002A 4B02              .word L25
                        .area data(ram, con, rel)
 002C                   .dbfile E:\My_GTAProject\塔城设故板\Software\user_main.c
 002C                   .blkw 1
                        .area idata
 002C 3102              .word L26
                        .area data(ram, con, rel)
 002E                   .dbfile E:\My_GTAProject\塔城设故板\Software\user_main.c
 002E                   .blkw 1
                        .area idata
 002E 1E02              .word L27
                        .area data(ram, con, rel)
 0030                   .dbfile E:\My_GTAProject\塔城设故板\Software\user_main.c
 0030                   .blkw 1
                        .area idata
 0030 0F02              .word L28
                        .area data(ram, con, rel)
 0032                   .dbfile E:\My_GTAProject\塔城设故板\Software\user_main.c
 0032                   .blkw 1
                        .area idata
 0032 0202              .word L29
                        .area data(ram, con, rel)
 0034                   .dbfile E:\My_GTAProject\塔城设故板\Software\user_main.c
 0034                   .blkw 1
                        .area idata
 0034 EF01              .word L30
                        .area data(ram, con, rel)
 0036                   .dbfile E:\My_GTAProject\塔城设故板\Software\user_main.c
 0036                   .blkw 1
                        .area idata
 0036 DD01              .word L31
                        .area data(ram, con, rel)
 0038                   .dbfile E:\My_GTAProject\塔城设故板\Software\user_main.c
 0038                   .blkw 1
                        .area idata
 0038 C701              .word L32
                        .area data(ram, con, rel)
 003A                   .dbfile E:\My_GTAProject\塔城设故板\Software\user_main.c
 003A                   .blkw 1
                        .area idata
 003A B701              .word L33
                        .area data(ram, con, rel)
 003C                   .dbfile E:\My_GTAProject\塔城设故板\Software\user_main.c
 003C                   .blkw 1
                        .area idata
 003C AB01              .word L34
                        .area data(ram, con, rel)
 003E                   .dbfile E:\My_GTAProject\塔城设故板\Software\user_main.c
 003E                   .dbsym e WIFI_CMD _WIFI_CMD A[34:17]pc
 003E           _cntConfirm::
 003E                   .blkb 2
                        .area idata
 003E 5A05              .byte 'Z,5
                        .area data(ram, con, rel)
 0040                   .dbfile E:\My_GTAProject\塔城设故板\Software\user_main.c
 0040                   .blkb 2
                        .area idata
 0040 0340              .byte 3,64
                        .area data(ram, con, rel)
 0042                   .dbfile E:\My_GTAProject\塔城设故板\Software\user_main.c
 0042                   .blkb 2
                        .area idata
 0042 4040              .byte 64,64
                        .area data(ram, con, rel)
 0044                   .dbfile E:\My_GTAProject\塔城设故板\Software\user_main.c
 0044                   .blkb 1
                        .area idata
 0044 40                .byte 64
                        .area data(ram, con, rel)
 0045                   .dbfile E:\My_GTAProject\塔城设故板\Software\user_main.c
 0045                   .blkb 1
                        .area idata
 0045 00                .byte 0
                        .area data(ram, con, rel)
 0046                   .dbfile E:\My_GTAProject\塔城设故板\Software\user_main.c
 0046                   .dbsym e cntConfirm _cntConfirm A[8:8]c
 0046           _userMe::
 0046                   .blkb 9
                        .area idata
 0046 303030303030303000        .byte 48,48,48,48,48,48,48,48,0
                        .area data(ram, con, rel)
 004F                   .dbfile E:\My_GTAProject\塔城设故板\Software\user_main.c
 004F                   .blkb 9
                        .area idata
 004F 303030303030303000        .byte 48,48,48,48,48,48,48,48,0
                        .area data(ram, con, rel)
 0058                   .dbfile E:\My_GTAProject\塔城设故板\Software\user_main.c
 0058                   .dbstruct 0 18 .2
 0058                   .dbfield 0 userID A[9:9]c
 0058                   .dbfield 9 password A[9:9]c
 0058                   .dbend
 0058                   .dbsym e userMe _userMe S[.2]
 0058           _userMe_temp::
 0058                   .blkb 9
                        .area idata
 0058 303030303030303000        .byte 48,48,48,48,48,48,48,48,0
                        .area data(ram, con, rel)
 0061                   .dbfile E:\My_GTAProject\塔城设故板\Software\user_main.c
 0061                   .blkb 9
                        .area idata
 0061 303030303030303000        .byte 48,48,48,48,48,48,48,48,0
                        .area data(ram, con, rel)
 006A                   .dbfile E:\My_GTAProject\塔城设故板\Software\user_main.c
 006A                   .dbsym e userMe_temp _userMe_temp S[.2]
 006A           _UI_pt::
 006A                   .blkb 1
                        .area idata
 006A 00                .byte 0
                        .area data(ram, con, rel)
 006B                   .dbfile E:\My_GTAProject\塔城设故板\Software\user_main.c
 006B                   .dbsym e UI_pt _UI_pt c
                        .area text(rom, con, rel)
 0000                   .dbfile E:\My_GTAProject\塔城设故板\Software\user_main.c
 0000                   .dbfunc e delay_3us _delay_3us fV
                        .even
 0000           _delay_3us::
 0000                   .dbline -1
 0000                   .dbline 69
 0000           ; #include "usart.h"
 0000           ; #include "IO_control.h"
 0000           ; 
 0000           ; const uchar *ITFR_CMD[4+2+3+3+2] = {
 0000           ; 
 0000           ;       "res_fengshan.fs_res1.txt=\"0\"",                       //1
 0000           ;       "res_fengshan.fs_res2.txt=\"0\"",
 0000           ;       "res_fengshan.fs_res3.txt=\"0\"",
 0000           ;       "res_fengshan.fs_res4.txt=\"0\"",
 0000           ;       
 0000           ;       "res_dianfanbao.dfb_res1.txt=\"0\"",            //5
 0000           ;       "res_dianfanbao.dfb_res2.txt=\"0\"",
 0000           ;       "res_dianfanbao.dfb_res3.txt=\"0\"",
 0000           ;       
 0000           ;       "res_weibolu.wbl_res1.txt=\"0\"",                       //8
 0000           ;       "res_weibolu.wbl_res2.txt=\"0\"",
 0000           ;       
 0000           ;       "res_xiaodugui.xdg_res1.txt=\"0\"",                     //10
 0000           ;       "res_xiaodugui.xdg_res2.txt=\"0\"",
 0000           ;       
 0000           ;       "res_xiyiji.xyj_res1.txt=\"0\"",                        //12
 0000           ;       "res_xiyiji.xyj_res2.txt=\"0\"",
 0000           ;       "res_xiyiji.xyj_res3.txt=\"0\"",        
 0000           ; };
 0000           ; 
 0000           ; const uchar *WIFI_CMD[17] = {
 0000           ; 
 0000           ;       "at+netmode=2",
 0000           ;       "at+dhcpd=0",
 0000           ;       "at+wifi_conf="WIFI_INFORMATION,
 0000           ;       "at+dhcpc=0",
 0000           ; //    "at+net_ip="device_IP",255.255.255.0,10.2.8.254",
 0000           ;       "at+net_ip="device_IP",255.255.255.0,192.168.0.1",
 0000           ; //    "at+net_dns=202.96.128.86,202.96.134.33",
 0000           ;       "at+net_dns=192.168.0.1,0.0.0.0",
 0000           ;       "at+remotepro=tcp",
 0000           ;       "at+mode=client",
 0000           ; //    "at+remoteip=10.2.8.139",
 0000           ;       "at+remoteip=192.168.0.103",
 0000           ;       "at+remoteport=8088",
 0000           ;       "at+CLport=1234",
 0000           ;       "at+timeout=0",
 0000           ;       "at+uart=9600,8,n,1",
 0000           ;       "at+uartpacklen=64",
 0000           ;       "at+uartpacktimeout=10",
 0000           ;       "at+net_commit=1",
 0000           ;       "at+reconn=1"
 0000           ; };
 0000           ; 
 0000           ; const char cntConfirm[8] = {0x5a,device_ID,0x03,0x40,0x40,0x40,0x40};
 0000           ; 
 0000           ; extern uchar WIFI_BUF_QUE[BUFFER0_QLENTH][UART0_RX_BUFFER_SIZE];      
 0000           ; extern uchar ITFR_BUF_QUE[BUFFER1_QLENTH][UART1_RX_BUFFER_SIZE];      
 0000           ; 
 0000           ; extern infoMal infoMal_teacher;
 0000           ; extern infoMal infoMal_student;
 0000           ; 
 0000           ; extern uchar resIOJudge[9];                   //老师设故与学生解故比较结果存放
 0000           ; 
 0000           ; infoUser userMe        = {"00000000","00000000"};
 0000           ; infoUser userMe_temp = {"00000000","00000000"};
 0000           ; 
 0000           ; uchar UI_pt = 0x00;                   //UI界面游标，指向当前所显示界面
 0000           ; 
 0000           ; void delay_3us(void);
 0000           ; void wifiConnecting(void);
 0000           ; 
 0000           ; void delay_3us(void)  //3us延时函数,,可重复调用不影响精度 
 0000           ; {
 0000                   .dbline 70
 0000           ;    asm("nop"); asm("nop"); asm("nop"); asm("nop"); asm("nop"); asm("nop");
 0000 0000              nop
 0002                   .dbline 70
 0002 0000              nop
 0004                   .dbline 70
 0004 0000              nop
 0006                   .dbline 70
 0006 0000              nop
 0008                   .dbline 70
 0008 0000              nop
 000A                   .dbline 70
 000A 0000              nop
 000C                   .dbline 71
 000C           ;    asm("nop"); asm("nop"); asm("nop"); asm("nop"); asm("nop"); asm("nop");
 000C 0000              nop
 000E                   .dbline 71
 000E 0000              nop
 0010                   .dbline 71
 0010 0000              nop
 0012                   .dbline 71
 0012 0000              nop
 0014                   .dbline 71
 0014 0000              nop
 0016                   .dbline 71
 0016 0000              nop
 0018                   .dbline 72
 0018           ;    asm("nop"); asm("nop"); asm("nop"); asm("nop"); asm("nop"); asm("nop");
 0018 0000              nop
 001A                   .dbline 72
 001A 0000              nop
 001C                   .dbline 72
 001C 0000              nop
 001E                   .dbline 72
 001E 0000              nop
 0020                   .dbline 72
 0020 0000              nop
 0022                   .dbline 72
 0022 0000              nop
 0024                   .dbline -2
 0024           L35:
 0024                   .dbline 0 ; func end
 0024 0895              ret
 0026                   .dbend
 0026                   .dbfunc e delay_10us _delay_10us fV
                        .even
 0026           _delay_10us::
 0026                   .dbline -1
 0026                   .dbline 76
 0026           ; }
 0026           ; 
 0026           ; void delay_10us(void)  //10us延时函数,可重复调用不影响精度
 0026           ; {
 0026                   .dbline 77
 0026           ;       delay_3us();
 0026 ECDF              xcall _delay_3us
 0028                   .dbline 78
 0028           ;       delay_3us();
 0028 EBDF              xcall _delay_3us
 002A                   .dbline 79
 002A           ;       delay_3us();
 002A                   .dbline -2
 002A           L36:
 002A                   .dbline 0 ; func end
 002A EACF              xjmp _delay_3us
 002C                   .dbend
 002C                   .dbfunc e delay_50us _delay_50us fV
                        .even
 002C           _delay_50us::
 002C                   .dbline -1
 002C                   .dbline 83
 002C           ; }
 002C           ; 
 002C           ; void delay_50us(void)  //48us延时函数,可重复调用不影响精度
 002C           ; {      
 002C                   .dbline 84
 002C           ;       delay_10us();    
 002C FCDF              xcall _delay_10us
 002E                   .dbline 85
 002E           ;       delay_10us();    
 002E FBDF              xcall _delay_10us
 0030                   .dbline 86
 0030           ;       delay_10us();   
 0030 FADF              xcall _delay_10us
 0032                   .dbline 87
 0032           ;       delay_10us();    
 0032 F9DF              xcall _delay_10us
 0034                   .dbline 88
 0034           ;       delay_10us();
 0034                   .dbline -2
 0034           L37:
 0034                   .dbline 0 ; func end
 0034 F8CF              xjmp _delay_10us
 0036                   .dbend
 0036                   .dbfunc e delay_100us _delay_100us fV
                        .even
 0036           _delay_100us::
 0036                   .dbline -1
 0036                   .dbline 92
 0036           ; }
 0036           ;  
 0036           ; void delay_100us(void)//exactly 98us延时函数,可重复调用不影响精度
 0036           ; {
 0036                   .dbline 93
 0036           ;   delay_50us();
 0036 FADF              xcall _delay_50us
 0038                   .dbline 94
 0038           ;   delay_50us();
 0038 F9DF              xcall _delay_50us
 003A                   .dbline 95
 003A           ;   delay_3us();
 003A                   .dbline -2
 003A           L38:
 003A                   .dbline 0 ; func end
 003A E2CF              xjmp _delay_3us
 003C                   .dbend
 003C                   .dbfunc e delay_1ms _delay_1ms fV
                        .even
 003C           _delay_1ms::
 003C                   .dbline -1
 003C                   .dbline 99
 003C           ; }
 003C           ;  
 003C           ; void delay_1ms(void)            
 003C           ; {
 003C                   .dbline 100
 003C           ;   delay_100us(); delay_100us(); delay_100us(); delay_100us(); delay_100us();
 003C FCDF              xcall _delay_100us
 003E                   .dbline 100
 003E FBDF              xcall _delay_100us
 0040                   .dbline 100
 0040 FADF              xcall _delay_100us
 0042                   .dbline 100
 0042 F9DF              xcall _delay_100us
 0044                   .dbline 100
 0044 F8DF              xcall _delay_100us
 0046                   .dbline 101
 0046           ;   delay_100us(); delay_100us(); delay_100us(); delay_100us(); delay_100us();
 0046 F7DF              xcall _delay_100us
 0048                   .dbline 101
 0048 F6DF              xcall _delay_100us
 004A                   .dbline 101
 004A F5DF              xcall _delay_100us
 004C                   .dbline 101
 004C F4DF              xcall _delay_100us
 004E                   .dbline 101
 004E                   .dbline -2
 004E           L39:
 004E                   .dbline 0 ; func end
 004E F3CF              xjmp _delay_100us
 0050                   .dbend
 0050                   .dbfunc e delay_ms _delay_ms fV
 0050           ;             ms -> R20,R21
                        .even
 0050           _delay_ms::
 0050 4A93              st -y,R20
 0052 5A93              st -y,R21
 0054 A801              movw R20,R16
 0056                   .dbline -1
 0056                   .dbline 105
 0056           ; }
 0056           ;   
 0056           ;  void delay_ms(uint ms )
 0056           ; {
 0056 01C0              xjmp L42
 0058           L41:
 0058                   .dbline 107
 0058           ;     while(ms--)  
 0058           ;               delay_1ms();//8MHZ主频时，25分钟误差小于1秒
 0058 F1DF              xcall _delay_1ms
 005A           L42:
 005A                   .dbline 106
 005A 1A01              movw R2,R20
 005C 4150              subi R20,1
 005E 5040              sbci R21,0
 0060 2220              tst R2
 0062 D1F7              brne L41
 0064 3320              tst R3
 0066 C1F7              brne L41
 0068           X0:
 0068                   .dbline -2
 0068           L40:
 0068                   .dbline 0 ; func end
 0068 5991              ld R21,y+
 006A 4991              ld R20,y+
 006C 0895              ret
 006E                   .dbsym r ms 20 i
 006E                   .dbend
 006E                   .dbfunc e EEPROM_write _EEPROM_write fV
 006E           ;           data -> R18
 006E           ;           addr -> R16
                        .even
 006E           _EEPROM_write::
 006E                   .dbline -1
 006E                   .dbline 110
 006E           ; }
 006E           ; 
 006E           ; void EEPROM_write(uchar addr,uchar data){
 006E           L45:
 006E                   .dbline 112
 006E           ; 
 006E           ;       while(EECR & BIT(EEWE));
 006E           L46:
 006E                   .dbline 112
 006E E199              sbic 0x1c,1
 0070 FECF              rjmp L45
 0072           X1:
 0072                   .dbline 113
 0072           ;       EEAR=addr;
 0072 202E              mov R2,R16
 0074 3324              clr R3
 0076 3FBA              out 0x1f,R3
 0078 2EBA              out 0x1e,R2
 007A                   .dbline 114
 007A           ;       EEDR=data;
 007A 2DBB              out 0x1d,R18
 007C                   .dbline 115
 007C           ;       EECR|=BIT(EEMWE);
 007C E29A              sbi 0x1c,2
 007E                   .dbline 116
 007E           ;       EECR|=BIT(EEWE);
 007E E19A              sbi 0x1c,1
 0080                   .dbline -2
 0080           L44:
 0080                   .dbline 0 ; func end
 0080 0895              ret
 0082                   .dbsym r data 18 c
 0082                   .dbsym r addr 16 c
 0082                   .dbend
 0082                   .dbfunc e EEPROM_read _EEPROM_read fc
 0082           ;           addr -> R16
                        .even
 0082           _EEPROM_read::
 0082                   .dbline -1
 0082                   .dbline 119
 0082           ; }
 0082           ; 
 0082           ; uchar EEPROM_read(uchar addr){
 0082           L49:
 0082                   .dbline 121
 0082           ; 
 0082           ;       while(EECR & BIT(EEWE));
 0082           L50:
 0082                   .dbline 121
 0082 E199              sbic 0x1c,1
 0084 FECF              rjmp L49
 0086           X2:
 0086                   .dbline 122
 0086           ;       EEAR=addr;
 0086 202E              mov R2,R16
 0088 3324              clr R3
 008A 3FBA              out 0x1f,R3
 008C 2EBA              out 0x1e,R2
 008E                   .dbline 123
 008E           ;       EECR|=BIT(EERE);
 008E E09A              sbi 0x1c,0
 0090                   .dbline 124
 0090           ;       return EEDR;
 0090 0DB3              in R16,0x1d
 0092                   .dbline -2
 0092           L48:
 0092                   .dbline 0 ; func end
 0092 0895              ret
 0094                   .dbsym r addr 16 c
 0094                   .dbend
 0094                   .dbfunc e userID_read _userID_read fV
 0094           ;           loop -> R20
 0094           ;           Dats -> R10,R11
                        .even
 0094           _userID_read::
 0094 0E940000          xcall push_xgset300C
 0098 5801              movw R10,R16
 009A                   .dbline -1
 009A                   .dbline 127
 009A           ; }
 009A           ; 
 009A           ; void userID_read(uchar Dats[8]){
 009A                   .dbline 131
 009A           ;        
 009A           ;       uchar loop;
 009A           ;       
 009A           ;       for(loop = 0;loop < 8;loop ++)
 009A 4427              clr R20
 009C 09C0              xjmp L56
 009E           L53:
 009E                   .dbline 132
 009E           ;               Dats[loop] = EEPROM_read(loop+0x10);
 009E 042F              mov R16,R20
 00A0 005F              subi R16,240    ; addi 16
 00A2 EFDF              xcall _EEPROM_read
 00A4 E42F              mov R30,R20
 00A6 FF27              clr R31
 00A8 EA0D              add R30,R10
 00AA FB1D              adc R31,R11
 00AC 0083              std z+0,R16
 00AE           L54:
 00AE                   .dbline 131
 00AE 4395              inc R20
 00B0           L56:
 00B0                   .dbline 131
 00B0 4830              cpi R20,8
 00B2 A8F3              brlo L53
 00B4           X3:
 00B4                   .dbline -2
 00B4           L52:
 00B4                   .dbline 0 ; func end
 00B4 0C940000          xjmp pop_xgset300C
 00B8                   .dbsym r loop 20 c
 00B8                   .dbsym r Dats 10 pc
 00B8                   .dbend
 00B8                   .dbfunc e userID_write _userID_write fV
 00B8           ;           loop -> R20
 00B8           ;           Dats -> R10,R11
                        .even
 00B8           _userID_write::
 00B8 0E940000          xcall push_xgset300C
 00BC 5801              movw R10,R16
 00BE                   .dbline -1
 00BE                   .dbline 135
 00BE           ; }
 00BE           ; 
 00BE           ; void userID_write(uchar Dats[8]){                //eeprom读用户名
 00BE                   .dbline 139
 00BE           ;        
 00BE           ;       uchar loop;
 00BE           ;       
 00BE           ;       for(loop = 0;loop < 8;loop ++)
 00BE 4427              clr R20
 00C0 09C0              xjmp L61
 00C2           L58:
 00C2                   .dbline 140
 00C2           ;               EEPROM_write(loop+0x10,Dats[loop]);
 00C2 E42F              mov R30,R20
 00C4 FF27              clr R31
 00C6 EA0D              add R30,R10
 00C8 FB1D              adc R31,R11
 00CA 2081              ldd R18,z+0
 00CC 042F              mov R16,R20
 00CE 005F              subi R16,240    ; addi 16
 00D0 CEDF              xcall _EEPROM_write
 00D2           L59:
 00D2                   .dbline 139
 00D2 4395              inc R20
 00D4           L61:
 00D4                   .dbline 139
 00D4 4830              cpi R20,8
 00D6 A8F3              brlo L58
 00D8           X4:
 00D8                   .dbline -2
 00D8           L57:
 00D8                   .dbline 0 ; func end
 00D8 0C940000          xjmp pop_xgset300C
 00DC                   .dbsym r loop 20 c
 00DC                   .dbsym r Dats 10 pc
 00DC                   .dbend
 00DC                   .dbfunc e password_read _password_read fV
 00DC           ;           loop -> R20
 00DC           ;           Dats -> R10,R11
                        .even
 00DC           _password_read::
 00DC 0E940000          xcall push_xgset300C
 00E0 5801              movw R10,R16
 00E2                   .dbline -1
 00E2                   .dbline 144
 00E2           ; }
 00E2           ; 
 00E2           ; 
 00E2           ; void password_read(uchar Dats[8]){               //eeprom读密码
 00E2                   .dbline 148
 00E2           ;        
 00E2           ;       uchar loop;
 00E2           ;       
 00E2           ;       for(loop = 0;loop < 8;loop ++)
 00E2 4427              clr R20
 00E4 09C0              xjmp L66
 00E6           L63:
 00E6                   .dbline 149
 00E6           ;               Dats[loop] = EEPROM_read(loop+0x20);
 00E6 042F              mov R16,R20
 00E8 005E              subi R16,224    ; addi 32
 00EA CBDF              xcall _EEPROM_read
 00EC E42F              mov R30,R20
 00EE FF27              clr R31
 00F0 EA0D              add R30,R10
 00F2 FB1D              adc R31,R11
 00F4 0083              std z+0,R16
 00F6           L64:
 00F6                   .dbline 148
 00F6 4395              inc R20
 00F8           L66:
 00F8                   .dbline 148
 00F8 4830              cpi R20,8
 00FA A8F3              brlo L63
 00FC           X5:
 00FC                   .dbline -2
 00FC           L62:
 00FC                   .dbline 0 ; func end
 00FC 0C940000          xjmp pop_xgset300C
 0100                   .dbsym r loop 20 c
 0100                   .dbsym r Dats 10 pc
 0100                   .dbend
 0100                   .dbfunc e password_write _password_write fV
 0100           ;           loop -> R20
 0100           ;           Dats -> R10,R11
                        .even
 0100           _password_write::
 0100 0E940000          xcall push_xgset300C
 0104 5801              movw R10,R16
 0106                   .dbline -1
 0106                   .dbline 152
 0106           ; }
 0106           ; 
 0106           ; void password_write(uchar Dats[8]){
 0106                   .dbline 156
 0106           ;        
 0106           ;       uchar loop;
 0106           ;       
 0106           ;       for(loop = 0;loop < 8;loop ++)
 0106 4427              clr R20
 0108 09C0              xjmp L71
 010A           L68:
 010A                   .dbline 157
 010A           ;               EEPROM_write(loop+0x20,Dats[loop]);
 010A E42F              mov R30,R20
 010C FF27              clr R31
 010E EA0D              add R30,R10
 0110 FB1D              adc R31,R11
 0112 2081              ldd R18,z+0
 0114 042F              mov R16,R20
 0116 005E              subi R16,224    ; addi 32
 0118 AADF              xcall _EEPROM_write
 011A           L69:
 011A                   .dbline 156
 011A 4395              inc R20
 011C           L71:
 011C                   .dbline 156
 011C 4830              cpi R20,8
 011E A8F3              brlo L68
 0120           X6:
 0120                   .dbline -2
 0120           L67:
 0120                   .dbline 0 ; func end
 0120 0C940000          xjmp pop_xgset300C
 0124                   .dbsym r loop 20 c
 0124                   .dbsym r Dats 10 pc
 0124                   .dbend
 0124                   .dbfunc e reaptRes _reaptRes fV
 0124           ;           loop -> R20
                        .even
 0124           _reaptRes::
 0124 4A93              st -y,R20
 0126                   .dbline -1
 0126                   .dbline 160
 0126           ; }
 0126           ; 
 0126           ; void reaptRes(void){                                     //提交结果
 0126                   .dbline 164
 0126           ; 
 0126           ;        uchar loop;
 0126           ;        
 0126           ;        for(loop = 0;loop < 4;loop ++)
 0126 4427              clr R20
 0128 10C0              xjmp L76
 012A           L73:
 012A                   .dbline 165
 012A           ;               if(resIOJudge[loop] == 0)resIOJudge[loop] = 0x40;
 012A 80E0              ldi R24,<_resIOJudge
 012C 90E0              ldi R25,>_resIOJudge
 012E E42F              mov R30,R20
 0130 FF27              clr R31
 0132 E80F              add R30,R24
 0134 F91F              adc R31,R25
 0136 2080              ldd R2,z+0
 0138 2220              tst R2
 013A 31F4              brne L77
 013C           X7:
 013C                   .dbline 165
 013C E42F              mov R30,R20
 013E FF27              clr R31
 0140 E80F              add R30,R24
 0142 F91F              adc R31,R25
 0144 80E4              ldi R24,64
 0146 8083              std z+0,R24
 0148           L77:
 0148           L74:
 0148                   .dbline 164
 0148 4395              inc R20
 014A           L76:
 014A                   .dbline 164
 014A 4430              cpi R20,4
 014C 70F3              brlo L73
 014E           X8:
 014E                   .dbline 167
 014E           ; 
 014E           ;        WIFI_PUTC(0x5a);
 014E 0AE5              ldi R16,90
 0150 0E940000          xcall _putchar1
 0154                   .dbline 168
 0154           ;        WIFI_PUTC(device_ID);
 0154 05E0              ldi R16,5
 0156 0E940000          xcall _putchar1
 015A                   .dbline 169
 015A           ;        WIFI_PUTC(0x20);
 015A 00E2              ldi R16,32
 015C 0E940000          xcall _putchar1
 0160                   .dbline 170
 0160           ;        WIFI_PUTS(resIOJudge);
 0160 00E0              ldi R16,<_resIOJudge
 0162 10E0              ldi R17,>_resIOJudge
 0164 0E940000          xcall _puts1
 0168                   .dbline -2
 0168           L72:
 0168                   .dbline 0 ; func end
 0168 4991              ld R20,y+
 016A 0895              ret
 016C                   .dbsym r loop 20 c
 016C                   .dbend
 016C                   .dbfunc e bspInit _bspInit fV
                        .even
 016C           _bspInit::
 016C                   .dbline -1
 016C                   .dbline 174
 016C           ; }
 016C           ; 
 016C           ; void bspInit(void)                                               //初始化
 016C           ; {     
 016C                   .dbline 175
 016C           ;       usart_init();                                              //串口初始化
 016C 0E940000          xcall _usart_init
 0170                   .dbline 177
 0170           ;       
 0170           ;       ITFR_PUTS("page connecting");              //首页
 0170 00E0              ldi R16,<L80
 0172 10E0              ldi R17,>L80
 0174 0E940000          xcall _puts0
 0178                   .dbline 179
 0178           ;       
 0178           ;       IOReinstate();                                             //端口复位及信息清空
 0178 0E940000          xcall _IOReinstate
 017C                   .dbline 181
 017C           ;       
 017C           ;       wifiConnecting();
 017C 36D0              xcall _wifiConnecting
 017E                   .dbline 183
 017E           ;       
 017E           ;       userID_read(userMe.userID);                        //读用户
 017E 00E0              ldi R16,<_userMe
 0180 10E0              ldi R17,>_userMe
 0182 88DF              xcall _userID_read
 0184                   .dbline 184
 0184           ;       password_read(userMe.password);            //读密码
 0184 00E0              ldi R16,<_userMe+9
 0186 10E0              ldi R17,>_userMe+9
 0188                   .dbline -2
 0188           L79:
 0188                   .dbline 0 ; func end
 0188 A9CF              xjmp _password_read
 018A                   .dbend
 018A                   .dbfunc e getConnect _getConnect fV
 018A           ;          loopa -> R20
                        .even
 018A           _getConnect::
 018A 4A93              st -y,R20
 018C                   .dbline -1
 018C                   .dbline 187
 018C           ; }
 018C           ; 
 018C           ; void getConnect(void){
 018C                   .dbline 191
 018C           ; 
 018C           ;       uchar loopa;
 018C           ;       
 018C           ;       for(loopa = 0;loopa < 30;loopa ++){
 018C 4427              clr R20
 018E 07C0              xjmp L86
 0190           L83:
 0190                   .dbline 191
 0190                   .dbline 193
 0190           ;                                 
 0190           ;               WIFI_PUTC('+');
 0190 0BE2              ldi R16,43
 0192 0E940000          xcall _putchar1
 0196                   .dbline 194
 0196           ;               delay_ms(100);
 0196 04E6              ldi R16,100
 0198 10E0              ldi R17,0
 019A 5ADF              xcall _delay_ms
 019C                   .dbline 195
 019C           ;       }
 019C           L84:
 019C                   .dbline 191
 019C 4395              inc R20
 019E           L86:
 019E                   .dbline 191
 019E 4E31              cpi R20,30
 01A0 B8F3              brlo L83
 01A2           X9:
 01A2                   .dbline 197
 01A2           ;               
 01A2           ;       for(loopa = 0;loopa < 17;loopa ++)
 01A2 4427              clr R20
 01A4 0DC0              xjmp L90
 01A6           L87:
 01A6                   .dbline 198
 01A6           ;               WIFI_PUTS((uchar*)WIFI_CMD[loopa]);
 01A6 80E0              ldi R24,<_WIFI_CMD
 01A8 90E0              ldi R25,>_WIFI_CMD
 01AA E42F              mov R30,R20
 01AC FF27              clr R31
 01AE EE0F              lsl R30
 01B0 FF1F              rol R31
 01B2 E80F              add R30,R24
 01B4 F91F              adc R31,R25
 01B6 0081              ldd R16,z+0
 01B8 1181              ldd R17,z+1
 01BA 0E940000          xcall _puts1
 01BE           L88:
 01BE                   .dbline 197
 01BE 4395              inc R20
 01C0           L90:
 01C0                   .dbline 197
 01C0 4131              cpi R20,17
 01C2 88F3              brlo L87
 01C4           X10:
 01C4                   .dbline 200
 01C4           ;               
 01C4           ;       delay_ms(500);
 01C4 04EF              ldi R16,500
 01C6 11E0              ldi R17,1
 01C8 43DF              xcall _delay_ms
 01CA                   .dbline 201
 01CA           ;       WIFI_PUTS("at+reconn=1");
 01CA 00E0              ldi R16,<L34
 01CC 10E0              ldi R17,>L34
 01CE 0E940000          xcall _puts1
 01D2                   .dbline 202
 01D2           ;       delay_ms(500);
 01D2 04EF              ldi R16,500
 01D4 11E0              ldi R17,1
 01D6 3CDF              xcall _delay_ms
 01D8                   .dbline 203
 01D8           ;       WIFI_PUTS("at+reconn=1");
 01D8 00E0              ldi R16,<L34
 01DA 10E0              ldi R17,>L34
 01DC 0E940000          xcall _puts1
 01E0                   .dbline 204
 01E0           ;       delay_ms(500);
 01E0 04EF              ldi R16,500
 01E2 11E0              ldi R17,1
 01E4 35DF              xcall _delay_ms
 01E6                   .dbline -2
 01E6           L82:
 01E6                   .dbline 0 ; func end
 01E6 4991              ld R20,y+
 01E8 0895              ret
 01EA                   .dbsym r loopa 20 c
 01EA                   .dbend
 01EA                   .dbfunc e wifiConnecting _wifiConnecting fV
                        .even
 01EA           _wifiConnecting::
 01EA 2797              sbiw R28,7
 01EC                   .dbline -1
 01EC                   .dbline 207
 01EC           ; }
 01EC           ; 
 01EC           ; void wifiConnecting(void){                               //初始化连接
 01EC                   .dbline 209
 01EC           ;       
 01EC           ;       ITFR_PUTS("page connecting");
 01EC 00E0              ldi R16,<L80
 01EE 10E0              ldi R17,>L80
 01F0 0E940000          xcall _puts0
 01F4                   .dbline 210
 01F4           ;       UI_pt = 0x00;
 01F4 2224              clr R2
 01F6 20926A00          sts _UI_pt,R2
 01FA 20C0              xjmp L93
 01FC           L92:
 01FC                   .dbline 213
 01FC           ;       
 01FC           ;       while(1)
 01FC           ;       if(!ATTX_M1(WIFI,(char*)cntConfirm,(char*)cntConfirm,0,1000,6))
 01FC 86E0              ldi R24,6
 01FE 8E83              std y+6,R24
 0200 88EE              ldi R24,1000
 0202 93E0              ldi R25,3
 0204 9D83              std y+5,R25
 0206 8C83              std y+4,R24
 0208 2224              clr R2
 020A 2A82              std y+2,R2
 020C 80E0              ldi R24,<_cntConfirm
 020E 90E0              ldi R25,>_cntConfirm
 0210 9983              std y+1,R25
 0212 8883              std y+0,R24
 0214 20E0              ldi R18,<_cntConfirm
 0216 30E0              ldi R19,>_cntConfirm
 0218 02E4              ldi R16,66
 021A 0E940000          xcall _ATTX_M1
 021E 0023              tst R16
 0220 41F4              brne L95
 0222           X11:
 0222                   .dbline 214
 0222           ;       {
 0222                   .dbline 216
 0222           ;       
 0222           ;               ITFR_PUTS("page main");
 0222 00E0              ldi R16,<L97
 0224 10E0              ldi R17,>L97
 0226 0E940000          xcall _puts0
 022A                   .dbline 217
 022A           ;               UI_pt = 0x01;
 022A 81E0              ldi R24,1
 022C 80936A00          sts _UI_pt,R24
 0230                   .dbline 218
 0230           ;               return;
 0230 06C0              xjmp L91
 0232           L95:
 0232                   .dbline 221
 0232           ;       }
 0232           ;       else 
 0232           ;       {
 0232                   .dbline 223
 0232           ;                
 0232           ;               getConnect();
 0232 ABDF              xcall _getConnect
 0234                   .dbline 224
 0234           ;               ITFR_PUTS("page connecting");
 0234 00E0              ldi R16,<L80
 0236 10E0              ldi R17,>L80
 0238 0E940000          xcall _puts0
 023C                   .dbline 225
 023C           ;       }
 023C           L93:
 023C                   .dbline 212
 023C DFCF              xjmp L92
 023E           X12:
 023E                   .dbline -2
 023E           L91:
 023E                   .dbline 0 ; func end
 023E 2796              adiw R28,7
 0240 0895              ret
 0242                   .dbend
 0242                   .dbfunc e wifiReconnect _wifiReconnect fV
                        .even
 0242           _wifiReconnect::
 0242 4A93              st -y,R20
 0244 5A93              st -y,R21
 0246 2797              sbiw R28,7
 0248                   .dbline -1
 0248                   .dbline 228
 0248           ; }
 0248           ; 
 0248           ; void wifiReconnect(void){                                     //中途断开重连
 0248                   .dbline 230
 0248           ;       
 0248           ;       ITFR_PUTS("page reconnect");
 0248 00E0              ldi R16,<L99
 024A 10E0              ldi R17,>L99
 024C 0E940000          xcall _puts0
 0250 2EC0              xjmp L101
 0252           L100:
 0252                   .dbline 233
 0252           ;       
 0252           ;       while(1)
 0252           ;       if(!ATTX_M1(WIFI,(char*)cntConfirm,(char*)cntConfirm,0,1000,6))
 0252 86E0              ldi R24,6
 0254 8E83              std y+6,R24
 0256 88EE              ldi R24,1000
 0258 93E0              ldi R25,3
 025A 9D83              std y+5,R25
 025C 8C83              std y+4,R24
 025E 2224              clr R2
 0260 2A82              std y+2,R2
 0262 80E0              ldi R24,<_cntConfirm
 0264 90E0              ldi R25,>_cntConfirm
 0266 9983              std y+1,R25
 0268 8883              std y+0,R24
 026A 20E0              ldi R18,<_cntConfirm
 026C 30E0              ldi R19,>_cntConfirm
 026E 02E4              ldi R16,66
 0270 0E940000          xcall _ATTX_M1
 0274 0023              tst R16
 0276 B1F4              brne L103
 0278           X13:
 0278                   .dbline 234
 0278           ;       {
 0278                   .dbline 236
 0278           ;       
 0278           ;               switch(UI_pt){
 0278 40916A00          lds R20,_UI_pt
 027C 5527              clr R21
 027E 4130              cpi R20,1
 0280 E0E0              ldi R30,0
 0282 5E07              cpc R21,R30
 0284 29F0              breq L108
 0286           X14:
 0286 4230              cpi R20,2
 0288 E0E0              ldi R30,0
 028A 5E07              cpc R21,R30
 028C 31F0              breq L109
 028E           X15:
 028E 10C0              xjmp L98
 0290           L108:
 0290                   .dbline 238
 0290           ;               
 0290           ;                       case 0x01:      ITFR_PUTS("page main");                                    break;
 0290 00E0              ldi R16,<L97
 0292 10E0              ldi R17,>L97
 0294 0E940000          xcall _puts0
 0298                   .dbline 238
 0298 0BC0              xjmp L98
 029A           L109:
 029A                   .dbline 239
 029A           ;                       case 0x02:      ITFR_PUTS("page device_select");                   break;
 029A 00E0              ldi R16,<L110
 029C 10E0              ldi R17,>L110
 029E 0E940000          xcall _puts0
 02A2                   .dbline 239
 02A2                   .dbline 240
 02A2           ;                       default:        break;
 02A2                   .dbline 242
 02A2           ;               }
 02A2           ;               return;
 02A2 06C0              xjmp L98
 02A4           L103:
 02A4                   .dbline 245
 02A4           ;       }
 02A4           ;       else 
 02A4           ;       {
 02A4                   .dbline 247
 02A4           ;                
 02A4           ;               getConnect();
 02A4 72DF              xcall _getConnect
 02A6                   .dbline 248
 02A6           ;               ITFR_PUTS("page reconnect");
 02A6 00E0              ldi R16,<L99
 02A8 10E0              ldi R17,>L99
 02AA 0E940000          xcall _puts0
 02AE                   .dbline 249
 02AE           ;       }
 02AE           L101:
 02AE                   .dbline 232
 02AE D1CF              xjmp L100
 02B0           X16:
 02B0                   .dbline -2
 02B0           L98:
 02B0                   .dbline 0 ; func end
 02B0 2796              adiw R28,7
 02B2 5991              ld R21,y+
 02B4 4991              ld R20,y+
 02B6 0895              ret
 02B8                   .dbend
 02B8                   .dbfunc e thread_main _thread_main fV
                        .area  func_lit(rom, con, rel)
 0000           L159:
 0000 E901              .word `L145
 0002 EE01              .word `L146
 0004 F301              .word `L147
 0006 F801              .word `L148
 0008 FD01              .word `L149
 000A 0202              .word `L150
 000C 0702              .word `L151
 000E 0C02              .word `L152
 0010 1102              .word `L153
 0012 1602              .word `L154
 0014 1B02              .word `L155
 0016 2002              .word `L156
 0018 2502              .word `L157
 001A 2A02              .word `L158
                        .area text(rom, con, rel)
                ;    heartBeat_A -> y+6
                ;    heartBeat_B -> y+2
                ;          loopa -> R20
                ;          loopb -> R22
                        .even
 02B8           _thread_main::
 02B8 0E940000          xcall push_xgsetF000
 02BC 2A97              sbiw R28,10
 02BE                   .dbline -1
 02BE                   .dbline 252
 02BE           ; }
 02BE           ; 
 02BE           ; void thread_main(void){
 02BE                   .dbline 258
 02BE           ; 
 02BE           ;        uchar loopa,loopb;
 02BE           ;        
 02BE           ;        unsigned long  heartBeat_A,heartBeat_B;
 02BE           ;        
 02BE           ;        heartBeat_A = heartBeat_B = 0;
 02BE 80E0              ldi R24,0
 02C0 8A83              std y+2+0,R24
 02C2 8B83              std y+2+1,R24
 02C4 8C83              std y+2+2,R24
 02C6 8D83              std y+2+3,R24
 02C8 80E0              ldi R24,0
 02CA 8E83              std y+6+0,R24
 02CC 8F83              std y+6+1,R24
 02CE 8887              std y+6+2,R24
 02D0 8987              std y+6+3,R24
 02D2 79C3              xjmp L113
 02D4           L112:
 02D4                   .dbline 260
 02D4           ; 
 02D4           ;        while(1){
 02D4                   .dbline 267
 02D4           ;        
 02D4           ;        /*********************************************PROCESSING_WIFI*********************************************/
 02D4           ;                
 02D4           ;                //putchar0(0x30+strcmp(userMe_temp.userID,userMe.userID));                             //用户名比较结果测试
 02D4           ;                //putchar0(0x30+strcmp(userMe_temp.password,userMe.password));                 //密码比较结果测试
 02D4           ;                
 02D4           ;                if(WIFI_BUF[0] == 0x5a){                               //包头解析
 02D4 80910000          lds R24,_UART1_RxBuff_Queue
 02D8 8A35              cpi R24,90
 02DA 09F0              breq X77
 02DC 18C1              xjmp L115
 02DE           X77:
 02DE           X17:
 02DE                   .dbline 267
 02DE                   .dbline 269
 02DE           ;                
 02DE           ;                        if((WIFI_BUF[1] == device_ID) || (WIFI_BUF[1] == 0x06)){
 02DE 80910100          lds R24,_UART1_RxBuff_Queue+1
 02E2 8530              cpi R24,5
 02E4 19F0              breq L121
 02E6           X18:
 02E6 8630              cpi R24,6
 02E8 09F0              breq X78
 02EA 11C1              xjmp L117
 02EC           X78:
 02EC           X19:
 02EC           L121:
 02EC                   .dbline 269
 02EC                   .dbline 271
 02EC           ;                        
 02EC           ;                                switch(WIFI_BUF[2]){
 02EC 40910200          lds R20,_UART1_RxBuff_Queue+2
 02F0 5527              clr R21
 02F2 4031              cpi R20,16
 02F4 E0E0              ldi R30,0
 02F6 5E07              cpc R21,R30
 02F8 A9F1              breq L132
 02FA           X20:
 02FA 80E1              ldi R24,16
 02FC 90E0              ldi R25,0
 02FE 8417              cp R24,R20
 0300 9507              cpc R25,R21
 0302 74F0              brlt L165
 0304           X21:
 0304           L164:
 0304 4130              cpi R20,1
 0306 E0E0              ldi R30,0
 0308 5E07              cpc R21,R30
 030A 81F0              breq L126
 030C           X22:
 030C 4230              cpi R20,2
 030E E0E0              ldi R30,0
 0310 5E07              cpc R21,R30
 0312 D1F0              breq L128
 0314           X23:
 0314 4330              cpi R20,3
 0316 E0E0              ldi R30,0
 0318 5E07              cpc R21,R30
 031A 09F4              brne X79
 031C C1C0              xjmp L163
 031E           X79:
 031E           X24:
 031E C5C0              xjmp L123
 0320           L165:
 0320 4033              cpi R20,48
 0322 E0E0              ldi R30,0
 0324 5E07              cpc R21,R30
 0326 09F4              brne X80
 0328 AAC0              xjmp L161
 032A           X80:
 032A           X25:
 032A BFC0              xjmp L123
 032C           L126:
 032C                   .dbline 273
 032C           ;                                 
 032C           ;                                        case 0x01:              strcpy(userMe.userID,&(WIFI_BUF[3]));userID_write(userMe.userID);      //老师设置用户名
 032C 20E0              ldi R18,<_UART1_RxBuff_Queue+3
 032E 30E0              ldi R19,>_UART1_RxBuff_Queue+3
 0330 00E0              ldi R16,<_userMe
 0332 10E0              ldi R17,>_userMe
 0334 0E940000          xcall _strcpy
 0338                   .dbline 273
 0338 00E0              ldi R16,<_userMe
 033A 10E0              ldi R17,>_userMe
 033C BDDE              xcall _userID_write
 033E                   .dbline 274
 033E           ;                                                                        ITFR_PUTS("page main");
 033E 00E0              ldi R16,<L97
 0340 10E0              ldi R17,>L97
 0342 0E940000          xcall _puts0
 0346                   .dbline 276
 0346           ;                                                                        //WIFI_PUTS("userID set");WIFI_PUTS(userMe.userID);            //测试wifi获取老师设置的用户名
 0346           ;                                                                        break;
 0346 B1C0              xjmp L123
 0348           L128:
 0348                   .dbline 278
 0348           ;                                                                        
 0348           ;                                        case 0x02:              strcpy(userMe.password,&(WIFI_BUF[3]));password_write(userMe.password);        //老师设置密码
 0348 20E0              ldi R18,<_UART1_RxBuff_Queue+3
 034A 30E0              ldi R19,>_UART1_RxBuff_Queue+3
 034C 00E0              ldi R16,<_userMe+9
 034E 10E0              ldi R17,>_userMe+9
 0350 0E940000          xcall _strcpy
 0354                   .dbline 278
 0354 00E0              ldi R16,<_userMe+9
 0356 10E0              ldi R17,>_userMe+9
 0358 D3DE              xcall _password_write
 035A                   .dbline 279
 035A           ;                                                                        ITFR_PUTS("page main");
 035A 00E0              ldi R16,<L97
 035C 10E0              ldi R17,>L97
 035E 0E940000          xcall _puts0
 0362                   .dbline 281
 0362           ;                                                                        //WIFI_PUTS("password set");WIFI_PUTS(userMe.password);        //测试测试wifi获取老师设置的密码
 0362           ;                                                                        break;
 0362 A3C0              xjmp L123
 0364           L132:
 0364                   .dbline 283
 0364           ;                                                                        
 0364           ;                                        case 0x10:              IOReinstate();                                                                                         //避免重复设故，以最后一次为准，将上一次复位
 0364 0E940000          xcall _IOReinstate
 0368                   .dbline 284
 0368           ;                                                                        ITFR_PUTS("device_select.dfs.txt=\"0\"");
 0368 00E0              ldi R16,<L133
 036A 10E0              ldi R17,>L133
 036C 0E940000          xcall _puts0
 0370                   .dbline 285
 0370           ;                                                                        ITFR_PUTS("device_select.dfb.txt=\"0\"");
 0370 00E0              ldi R16,<L134
 0372 10E0              ldi R17,>L134
 0374 0E940000          xcall _puts0
 0378                   .dbline 286
 0378           ;                                                                        ITFR_PUTS("device_select.wbl.txt=\"0\"");
 0378 00E0              ldi R16,<L135
 037A 10E0              ldi R17,>L135
 037C 0E940000          xcall _puts0
 0380                   .dbline 287
 0380           ;                                                                        ITFR_PUTS("device_select.xdg.txt=\"0\"");
 0380 00E0              ldi R16,<L136
 0382 10E0              ldi R17,>L136
 0384 0E940000          xcall _puts0
 0388                   .dbline 288
 0388           ;                                                                        ITFR_PUTS("device_select.xyj.txt=\"0\"");
 0388 00E0              ldi R16,<L137
 038A 10E0              ldi R17,>L137
 038C 0E940000          xcall _puts0
 0390                   .dbline 290
 0390           ;                                                                        
 0390           ;                                                                        for(loopa = 3;loopa < 17;loopa ++){                                            //老师设故解析,注意此处字节数有限制
 0390 43E0              ldi R20,3
 0392 65C0              xjmp L141
 0394           L138:
 0394                   .dbline 290
 0394                   .dbline 292
 0394           ;                                        
 0394           ;                                                                               switch(WIFI_BUF[loopa]){                                                                //设故板响应，设定成老师设故要求
 0394 80E0              ldi R24,<_UART1_RxBuff_Queue
 0396 90E0              ldi R25,>_UART1_RxBuff_Queue
 0398 E42F              mov R30,R20
 039A FF27              clr R31
 039C E80F              add R30,R24
 039E F91F              adc R31,R25
 03A0 6081              ldd R22,z+0
 03A2 7727              clr R23
 03A4 6130              cpi R22,1
 03A6 E0E0              ldi R30,0
 03A8 7E07              cpc R23,R30
 03AA 0CF4              brge X81
 03AC 57C0              xjmp L143
 03AE           X81:
 03AE           X26:
 03AE 8EE0              ldi R24,14
 03B0 90E0              ldi R25,0
 03B2 8617              cp R24,R22
 03B4 9707              cpc R25,R23
 03B6 0CF4              brge X82
 03B8 51C0              xjmp L143
 03BA           X82:
 03BA           X27:
 03BA 80E0              ldi R24,<L159
 03BC 90E0              ldi R25,>L159
 03BE FB01              movw R30,R22
 03C0 3197              sbiw R30,1
 03C2 EE0F              lsl R30
 03C4 FF1F              rol R31
 03C6 E80F              add R30,R24
 03C8 F91F              adc R31,R25
 03CA 2790              elpm R2,Z+
 03CC 3690              elpm R3,Z
 03CE F101              movw R30,R2
 03D0 0994               ijmp
 03D2           X28:
 03D2                   .dbfile E:\My_GTAProject\塔城设故板\Software\user_main.c
 03D2                   .dbline 292
 03D2           L145:
 03D2                   .dbline 294
 03D2           ;                                                                                                                
 03D2           ;                                                                                       case  1:        dianfengshan_IO('T',1); break;
 03D2 21E0              ldi R18,1
 03D4 04E5              ldi R16,84
 03D6 0E940000          xcall _dianfengshan_IO
 03DA                   .dbline 294
 03DA 40C0              xjmp L143
 03DC           L146:
 03DC                   .dbline 295
 03DC           ;                                                                                       case  2:        dianfengshan_IO('T',2); break;
 03DC 22E0              ldi R18,2
 03DE 04E5              ldi R16,84
 03E0 0E940000          xcall _dianfengshan_IO
 03E4                   .dbline 295
 03E4 3BC0              xjmp L143
 03E6           L147:
 03E6                   .dbline 296
 03E6           ;                                                                                       case  3:        dianfengshan_IO('T',3); break;
 03E6 23E0              ldi R18,3
 03E8 04E5              ldi R16,84
 03EA 0E940000          xcall _dianfengshan_IO
 03EE                   .dbline 296
 03EE 36C0              xjmp L143
 03F0           L148:
 03F0                   .dbline 297
 03F0           ;                                                                                       case  4:        dianfengshan_IO('T',4); break;
 03F0 24E0              ldi R18,4
 03F2 04E5              ldi R16,84
 03F4 0E940000          xcall _dianfengshan_IO
 03F8                   .dbline 297
 03F8 31C0              xjmp L143
 03FA           L149:
 03FA                   .dbline 298
 03FA           ;                                                                                       case  5:        dianfanbao_IO('T',1);   break;
 03FA 21E0              ldi R18,1
 03FC 04E5              ldi R16,84
 03FE 0E940000          xcall _dianfanbao_IO
 0402                   .dbline 298
 0402 2CC0              xjmp L143
 0404           L150:
 0404                   .dbline 299
 0404           ;                                                                                       case  6:        dianfanbao_IO('T',2);   break;
 0404 22E0              ldi R18,2
 0406 04E5              ldi R16,84
 0408 0E940000          xcall _dianfanbao_IO
 040C                   .dbline 299
 040C 27C0              xjmp L143
 040E           L151:
 040E                   .dbline 300
 040E           ;                                                                                       case  7:        dianfanbao_IO('T',3);   break;
 040E 23E0              ldi R18,3
 0410 04E5              ldi R16,84
 0412 0E940000          xcall _dianfanbao_IO
 0416                   .dbline 300
 0416 22C0              xjmp L143
 0418           L152:
 0418                   .dbline 301
 0418           ;                                                                                       case  8:        weibolu_IO('T',1);              break;
 0418 21E0              ldi R18,1
 041A 04E5              ldi R16,84
 041C 0E940000          xcall _weibolu_IO
 0420                   .dbline 301
 0420 1DC0              xjmp L143
 0422           L153:
 0422                   .dbline 302
 0422           ;                                                                                       case  9:        weibolu_IO('T',2);              break;
 0422 22E0              ldi R18,2
 0424 04E5              ldi R16,84
 0426 0E940000          xcall _weibolu_IO
 042A                   .dbline 302
 042A 18C0              xjmp L143
 042C           L154:
 042C                   .dbline 303
 042C           ;                                                                                       case 10:        xiaodugui_IO('T',1);    break;
 042C 21E0              ldi R18,1
 042E 04E5              ldi R16,84
 0430 0E940000          xcall _xiaodugui_IO
 0434                   .dbline 303
 0434 13C0              xjmp L143
 0436           L155:
 0436                   .dbline 304
 0436           ;                                                                                       case 11:        xiaodugui_IO('T',2);    break;
 0436 22E0              ldi R18,2
 0438 04E5              ldi R16,84
 043A 0E940000          xcall _xiaodugui_IO
 043E                   .dbline 304
 043E 0EC0              xjmp L143
 0440           L156:
 0440                   .dbline 305
 0440           ;                                                                                       case 12:        xiyiji_IO('T',1);               break;
 0440 21E0              ldi R18,1
 0442 04E5              ldi R16,84
 0444 0E940000          xcall _xiyiji_IO
 0448                   .dbline 305
 0448 09C0              xjmp L143
 044A           L157:
 044A                   .dbline 306
 044A           ;                                                                                       case 13:        xiyiji_IO('T',2);               break;
 044A 22E0              ldi R18,2
 044C 04E5              ldi R16,84
 044E 0E940000          xcall _xiyiji_IO
 0452                   .dbline 306
 0452 04C0              xjmp L143
 0454           L158:
 0454                   .dbline 307
 0454           ;                                                                                       case 14:        xiyiji_IO('T',3);               break;
 0454 23E0              ldi R18,3
 0456 04E5              ldi R16,84
 0458 0E940000          xcall _xiyiji_IO
 045C                   .dbline 307
 045C                   .dbline 308
 045C           ;                                                                                       default:        break;
 045C           L143:
 045C                   .dbline 310
 045C           ;                                                                                }
 045C           ;                                                                        }
 045C           L139:
 045C                   .dbline 290
 045C 4395              inc R20
 045E           L141:
 045E                   .dbline 290
 045E 4131              cpi R20,17
 0460 08F4              brsh X83
 0462 98CF              xjmp L138
 0464           X83:
 0464           X29:
 0464                   .dbline 311
 0464           ;                                                                        WIFI_BUF[1] = device_ID;                                       //修改ID，原包返回响应请求
 0464 85E0              ldi R24,5
 0466 80930100          sts _UART1_RxBuff_Queue+1,R24
 046A                   .dbline 312
 046A           ;                                                                        WIFI_PUTS(WIFI_BUF);
 046A 00E0              ldi R16,<_UART1_RxBuff_Queue
 046C 10E0              ldi R17,>_UART1_RxBuff_Queue
 046E 0E940000          xcall _puts1
 0472                   .dbline 314
 0472           ;                                                                        
 0472           ;                                                                        heartBeat_B = 0;                                                       //心跳
 0472 80E0              ldi R24,0
 0474 8A83              std y+2+0,R24
 0476 8B83              std y+2+1,R24
 0478 8C83              std y+2+2,R24
 047A 8D83              std y+2+3,R24
 047C                   .dbline 316
 047C           ;                                                                        
 047C           ;                                                                        break;
 047C 16C0              xjmp L123
 047E           L161:
 047E                   .dbline 318
 047E           ;                                                                        
 047E           ;                                        case 0x30:              IOReinstate();                                                         //设备复位
 047E 0E940000          xcall _IOReinstate
 0482                   .dbline 319
 0482           ;                                                                        ITFR_PUTS("page device_select");                       //重新开放选择界面
 0482 00E0              ldi R16,<L110
 0484 10E0              ldi R17,>L110
 0486 0E940000          xcall _puts0
 048A                   .dbline 320
 048A           ;                                                                        UI_pt = 0x02;
 048A 82E0              ldi R24,2
 048C 80936A00          sts _UI_pt,R24
 0490                   .dbline 321
 0490           ;                                                                        WIFI_BUF[1] = device_ID;                                       //修改ID，原包返回响应请求
 0490 85E0              ldi R24,5
 0492 80930100          sts _UART1_RxBuff_Queue+1,R24
 0496                   .dbline 322
 0496           ;                                                                        WIFI_PUTS(WIFI_BUF);
 0496 00E0              ldi R16,<_UART1_RxBuff_Queue
 0498 10E0              ldi R17,>_UART1_RxBuff_Queue
 049A 0E940000          xcall _puts1
 049E                   .dbline 323
 049E           ;                                                                        break;
 049E 05C0              xjmp L123
 04A0           L163:
 04A0                   .dbline 325
 04A0           ;                                                                        
 04A0           ;                                        case 0x03:              heartBeat_B = 0;                                                       //确认连接，心跳标记清零
 04A0 80E0              ldi R24,0
 04A2 8A83              std y+2+0,R24
 04A4 8B83              std y+2+1,R24
 04A6 8C83              std y+2+2,R24
 04A8 8D83              std y+2+3,R24
 04AA                   .dbline 326
 04AA           ;                                                                        break;
 04AA                   .dbline 328
 04AA           ;                                                                        
 04AA           ;                                        default:                break;
 04AA           L123:
 04AA                   .dbline 331
 04AA           ;                                }
 04AA           ;                                
 04AA           ;                                if(infoMal_teacher.dianfengshan)ITFR_PUTS("device_select.dfs.txt=\"1\"");      //解冻设备选项                           
 04AA 20900000          lds R2,_infoMal_teacher
 04AE 2220              tst R2
 04B0 21F0              breq L166
 04B2           X30:
 04B2                   .dbline 331
 04B2 00E0              ldi R16,<L168
 04B4 10E0              ldi R17,>L168
 04B6 0E940000          xcall _puts0
 04BA           L166:
 04BA                   .dbline 332
 04BA           ;                                if(infoMal_teacher.dianfanbao)ITFR_PUTS("device_select.dfb.txt=\"1\"");
 04BA 20900100          lds R2,_infoMal_teacher+1
 04BE 2220              tst R2
 04C0 21F0              breq L169
 04C2           X31:
 04C2                   .dbline 332
 04C2 00E0              ldi R16,<L172
 04C4 10E0              ldi R17,>L172
 04C6 0E940000          xcall _puts0
 04CA           L169:
 04CA                   .dbline 333
 04CA           ;                                if(infoMal_teacher.weibolu)ITFR_PUTS("device_select.wbl.txt=\"1\"");
 04CA 20900200          lds R2,_infoMal_teacher+2
 04CE 2220              tst R2
 04D0 21F0              breq L173
 04D2           X32:
 04D2                   .dbline 333
 04D2 00E0              ldi R16,<L176
 04D4 10E0              ldi R17,>L176
 04D6 0E940000          xcall _puts0
 04DA           L173:
 04DA                   .dbline 334
 04DA           ;                                if(infoMal_teacher.xiaodugui)ITFR_PUTS("device_select.xdg.txt=\"1\"");
 04DA 20900300          lds R2,_infoMal_teacher+3
 04DE 2220              tst R2
 04E0 21F0              breq L177
 04E2           X33:
 04E2                   .dbline 334
 04E2 00E0              ldi R16,<L180
 04E4 10E0              ldi R17,>L180
 04E6 0E940000          xcall _puts0
 04EA           L177:
 04EA                   .dbline 335
 04EA           ;                                if(infoMal_teacher.xiyiji)ITFR_PUTS("device_select.xyj.txt=\"1\"");
 04EA 20900400          lds R2,_infoMal_teacher+4
 04EE 2220              tst R2
 04F0 21F0              breq L181
 04F2           X34:
 04F2                   .dbline 335
 04F2 00E0              ldi R16,<L184
 04F4 10E0              ldi R17,>L184
 04F6 0E940000          xcall _puts0
 04FA           L181:
 04FA                   .dbline 336
 04FA           ;                                memset(WIFI_BUF,0,sizeof(uchar)*UART0_RX_BUFFER_SIZE);
 04FA 8EE1              ldi R24,30
 04FC 90E0              ldi R25,0
 04FE 9983              std y+1,R25
 0500 8883              std y+0,R24
 0502 2227              clr R18
 0504 3327              clr R19
 0506 00E0              ldi R16,<_UART1_RxBuff_Queue
 0508 10E0              ldi R17,>_UART1_RxBuff_Queue
 050A 0E940000          xcall _memset
 050E                   .dbline 337
 050E           ;                        }
 050E           L117:
 050E                   .dbline 338
 050E           ;                }
 050E           L115:
 050E                   .dbline 345
 050E           ;                //delay_ms(1500);                      //测试延时
 050E           ;                //WIFI_PUTS(WIFI_BUF);         //测试WIFI缓存
 050E           ;                
 050E           ;                
 050E           ;         /*********************************************PROCESSING_ITFR*********************************************/
 050E           ; 
 050E           ;                if(ITFR_BUF[0] == 0x5a){               //包头解析
 050E 80910000          lds R24,_UART0_RxBuff_Queue
 0512 8A35              cpi R24,90
 0514 09F0              breq X84
 0516 0CC2              xjmp L185
 0518           X84:
 0518           X35:
 0518                   .dbline 345
 0518                   .dbline 347
 0518           ;                
 0518           ;                        switch(ITFR_BUF[1]){
 0518 60910100          lds R22,_UART0_RxBuff_Queue+1
 051C 7727              clr R23
 051E 6032              cpi R22,32
 0520 E0E0              ldi R30,0
 0522 7E07              cpc R23,R30
 0524 09F4              brne X85
 0526 8FC0              xjmp L214
 0528           X85:
 0528           X36:
 0528 80E2              ldi R24,32
 052A 90E0              ldi R25,0
 052C 8617              cp R24,R22
 052E 9707              cpc R25,R23
 0530 BCF0              brlt L300
 0532           X37:
 0532           L299:
 0532 6130              cpi R22,1
 0534 E0E0              ldi R30,0
 0536 7E07              cpc R23,R30
 0538 49F1              breq L191
 053A           X38:
 053A 6230              cpi R22,2
 053C E0E0              ldi R30,0
 053E 7E07              cpc R23,R30
 0540 61F1              breq L193
 0542           X39:
 0542 6130              cpi R22,1
 0544 E0E0              ldi R30,0
 0546 7E07              cpc R23,R30
 0548 0CF4              brge X86
 054A BBC1              xjmp L188
 054C           X86:
 054C           X40:
 054C           L301:
 054C 6F30              cpi R22,15
 054E E0E0              ldi R30,0
 0550 7E07              cpc R23,R30
 0552 09F4              brne X87
 0554 B4C1              xjmp L298
 0556           X87:
 0556           X41:
 0556 6031              cpi R22,16
 0558 E0E0              ldi R30,0
 055A 7E07              cpc R23,R30
 055C 29F1              breq L196
 055E           X42:
 055E B1C1              xjmp L188
 0560           L300:
 0560 6034              cpi R22,64
 0562 E0E0              ldi R30,0
 0564 7E07              cpc R23,R30
 0566 09F4              brne X88
 0568 0CC1              xjmp L256
 056A           X88:
 056A           X43:
 056A 80E4              ldi R24,64
 056C 90E0              ldi R25,0
 056E 8617              cp R24,R22
 0570 9707              cpc R25,R23
 0572 34F0              brlt L303
 0574           X44:
 0574           L302:
 0574 6033              cpi R22,48
 0576 E0E0              ldi R30,0
 0578 7E07              cpc R23,R30
 057A 09F4              brne X89
 057C B3C0              xjmp L235
 057E           X89:
 057E           X45:
 057E A1C1              xjmp L188
 0580           L303:
 0580 6035              cpi R22,80
 0582 E0E0              ldi R30,0
 0584 7E07              cpc R23,R30
 0586 09F4              brne X90
 0588 4BC1              xjmp L277
 058A           X90:
 058A           X46:
 058A 9BC1              xjmp L188
 058C           L191:
 058C                   .dbline 349
 058C           ;                        
 058C           ;                                       case 0x01:              strcpy(userMe_temp.userID,&(ITFR_BUF[2]));                                                      //学生输入用户名
 058C 20E0              ldi R18,<_UART0_RxBuff_Queue+2
 058E 30E0              ldi R19,>_UART0_RxBuff_Queue+2
 0590 00E0              ldi R16,<_userMe_temp
 0592 10E0              ldi R17,>_userMe_temp
 0594 0E940000          xcall _strcpy
 0598                   .dbline 351
 0598           ;                                                                       //ITFR_PUTS("GOT userID");ITFR_PUTS(userMe_temp.userID);                        //测试学生输入的用户名
 0598           ;                                                                       break;
 0598 94C1              xjmp L188
 059A           L193:
 059A                   .dbline 352
 059A           ;                                       case 0x02:              strcpy(userMe_temp.password,&(ITFR_BUF[2]));                                            //学生输入密码
 059A 20E0              ldi R18,<_UART0_RxBuff_Queue+2
 059C 30E0              ldi R19,>_UART0_RxBuff_Queue+2
 059E 00E0              ldi R16,<_userMe_temp+9
 05A0 10E0              ldi R17,>_userMe_temp+9
 05A2 0E940000          xcall _strcpy
 05A6                   .dbline 354
 05A6           ;                                                                       //ITFR_PUTS("GOT password set");ITFR_PUTS(userMe_temp.password);        //测试学生输入的密码
 05A6           ;                                                                       break;
 05A6 8DC1              xjmp L188
 05A8           L196:
 05A8                   .dbline 356
 05A8           ;                                                                       
 05A8           ;                                       case 0x10:              for(loopa = 0;loopa < 4;loopa ++)                                                                                  //学生提交解故结果解析，电分扇，4个设故点
 05A8 4427              clr R20
 05AA 0FC0              xjmp L200
 05AC           L197:
 05AC                   .dbline 357
 05AC           ;                                                                               if(ITFR_BUF[loopa+2] == '1')dianfengshan_IO('S',loopa+1);                          //设故板响应，设定成学生提交结果
 05AC 80E0              ldi R24,<_UART0_RxBuff_Queue+2
 05AE 90E0              ldi R25,>_UART0_RxBuff_Queue+2
 05B0 E42F              mov R30,R20
 05B2 FF27              clr R31
 05B4 E80F              add R30,R24
 05B6 F91F              adc R31,R25
 05B8 8081              ldd R24,z+0
 05BA 8133              cpi R24,49
 05BC 29F4              brne L201
 05BE           X47:
 05BE                   .dbline 357
 05BE 242F              mov R18,R20
 05C0 2F5F              subi R18,255    ; addi 1
 05C2 03E5              ldi R16,83
 05C4 0E940000          xcall _dianfengshan_IO
 05C8           L201:
 05C8           L198:
 05C8                   .dbline 356
 05C8 4395              inc R20
 05CA           L200:
 05CA                   .dbline 356
 05CA 4430              cpi R20,4
 05CC 78F3              brlo L197
 05CE           X48:
 05CE                   .dbline 359
 05CE           ;                                                                               
 05CE           ;                                                                       OPJudje(infoMal_teacher.dianfengshan,infoMal_student.dianfengshan,1);      //比较学生提交结果与老是设定，得到仲裁结果           
 05CE 81E0              ldi R24,1
 05D0 8883              std y+0,R24
 05D2 20910000          lds R18,_infoMal_student
 05D6 00910000          lds R16,_infoMal_teacher
 05DA 0E940000          xcall _OPJudje
 05DE                   .dbline 360
 05DE           ;                                                                       for(loopa = 0;loopa < 4;loopa ++)                                                                                  //每一位都比较，避免游标错位
 05DE 4427              clr R20
 05E0 1DC0              xjmp L207
 05E2           L204:
 05E2                   .dbline 361
 05E2           ;                                                                           for(loopb = 1;loopb <= 4;loopb ++)                                                                     //向本地用户提交仲裁结果，只提交错误信息，loopb游标从1-4，表示故障1-4为电风扇故障
 05E2 61E0              ldi R22,1
 05E4 17C0              xjmp L211
 05E6           L208:
 05E6                   .dbline 362
 05E6           ;                                                                                   if(resIOJudge[loopa] == loopb)ITFR_PUTS((char*)ITFR_CMD[loopb-1]); //向本地用户提交结果，只提交错误的设故标号，[loopb-1]为故障标号与数组索引差值
 05E6 80E0              ldi R24,<_resIOJudge
 05E8 90E0              ldi R25,>_resIOJudge
 05EA E42F              mov R30,R20
 05EC FF27              clr R31
 05EE E80F              add R30,R24
 05F0 F91F              adc R31,R25
 05F2 2080              ldd R2,z+0
 05F4 2616              cp R2,R22
 05F6 69F4              brne L212
 05F8           X49:
 05F8                   .dbline 362
 05F8 80E0              ldi R24,<_ITFR_CMD
 05FA 90E0              ldi R25,>_ITFR_CMD
 05FC E62F              mov R30,R22
 05FE FF27              clr R31
 0600 3197              sbiw R30,1
 0602 EE0F              lsl R30
 0604 FF1F              rol R31
 0606 E80F              add R30,R24
 0608 F91F              adc R31,R25
 060A 0081              ldd R16,z+0
 060C 1181              ldd R17,z+1
 060E 0E940000          xcall _puts0
 0612           L212:
 0612           L209:
 0612                   .dbline 361
 0612 6395              inc R22
 0614           L211:
 0614                   .dbline 361
 0614 84E0              ldi R24,4
 0616 8617              cp R24,R22
 0618 30F7              brsh L208
 061A           X50:
 061A           L205:
 061A                   .dbline 360
 061A 4395              inc R20
 061C           L207:
 061C                   .dbline 360
 061C 4430              cpi R20,4
 061E 08F3              brlo L204
 0620           X51:
 0620                   .dbline 364
 0620           ;                                                                       
 0620           ;                                                                       memset(resIOJudge,0,sizeof(uchar)*9);             //清除比较信息结果缓存
 0620 89E0              ldi R24,9
 0622 90E0              ldi R25,0
 0624 9983              std y+1,R25
 0626 8883              std y+0,R24
 0628 2227              clr R18
 062A 3327              clr R19
 062C 00E0              ldi R16,<_resIOJudge
 062E 10E0              ldi R17,>_resIOJudge
 0630 0E940000          xcall _memset
 0634                   .dbline 365
 0634           ;                                                                       OPJudje(0x00,infoMal_student.dianfengshan,1); //得到学生更改变动的故障对应的故障编号信息，不仲裁
 0634 81E0              ldi R24,1
 0636 8883              std y+0,R24
 0638 20910000          lds R18,_infoMal_student
 063C 0027              clr R16
 063E 0E940000          xcall _OPJudje
 0642                   .dbline 366
 0642           ;                                                                       reaptRes();                             //学生变动提交老师
 0642 70DD              xcall _reaptRes
 0644                   .dbline 368
 0644           ;                                                                               
 0644           ;                                                                       break;
 0644 3EC1              xjmp L188
 0646           L214:
 0646                   .dbline 370
 0646           ;                                                                       
 0646           ;                                       case 0x20:              for(loopa = 0;loopa < 2;loopa ++)                                                               //微波炉，2个设故点
 0646 4427              clr R20
 0648 0FC0              xjmp L218
 064A           L215:
 064A                   .dbline 371
 064A           ;                                                                               if(ITFR_BUF[loopa+2] == '1')weibolu_IO('S',loopa+1);            //loop+2为了跳过包头两个字节
 064A 80E0              ldi R24,<_UART0_RxBuff_Queue+2
 064C 90E0              ldi R25,>_UART0_RxBuff_Queue+2
 064E E42F              mov R30,R20
 0650 FF27              clr R31
 0652 E80F              add R30,R24
 0654 F91F              adc R31,R25
 0656 8081              ldd R24,z+0
 0658 8133              cpi R24,49
 065A 29F4              brne L219
 065C           X52:
 065C                   .dbline 371
 065C 242F              mov R18,R20
 065E 2F5F              subi R18,255    ; addi 1
 0660 03E5              ldi R16,83
 0662 0E940000          xcall _weibolu_IO
 0666           L219:
 0666           L216:
 0666                   .dbline 370
 0666 4395              inc R20
 0668           L218:
 0668                   .dbline 370
 0668 4230              cpi R20,2
 066A 78F3              brlo L215
 066C           X53:
 066C                   .dbline 373
 066C           ;                                                                               
 066C           ;                                                                       OPJudje(infoMal_teacher.weibolu,infoMal_student.weibolu,8);             
 066C 88E0              ldi R24,8
 066E 8883              std y+0,R24
 0670 20910200          lds R18,_infoMal_student+2
 0674 00910200          lds R16,_infoMal_teacher+2
 0678 0E940000          xcall _OPJudje
 067C                   .dbline 374
 067C           ;                                                                       for(loopa = 0;loopa < 2;loopa ++)                               
 067C 4427              clr R20
 067E 1DC0              xjmp L227
 0680           L224:
 0680                   .dbline 375
 0680           ;                                                                           for(loopb = 8;loopb <= 9;loopb ++)                                                                          //8-9
 0680 68E0              ldi R22,8
 0682 17C0              xjmp L231
 0684           L228:
 0684                   .dbline 376
 0684           ;                                                                                   if(resIOJudge[loopa] == loopb)ITFR_PUTS((char*)ITFR_CMD[loopb-1]);
 0684 80E0              ldi R24,<_resIOJudge
 0686 90E0              ldi R25,>_resIOJudge
 0688 E42F              mov R30,R20
 068A FF27              clr R31
 068C E80F              add R30,R24
 068E F91F              adc R31,R25
 0690 2080              ldd R2,z+0
 0692 2616              cp R2,R22
 0694 69F4              brne L232
 0696           X54:
 0696                   .dbline 376
 0696 80E0              ldi R24,<_ITFR_CMD
 0698 90E0              ldi R25,>_ITFR_CMD
 069A E62F              mov R30,R22
 069C FF27              clr R31
 069E 3197              sbiw R30,1
 06A0 EE0F              lsl R30
 06A2 FF1F              rol R31
 06A4 E80F              add R30,R24
 06A6 F91F              adc R31,R25
 06A8 0081              ldd R16,z+0
 06AA 1181              ldd R17,z+1
 06AC 0E940000          xcall _puts0
 06B0           L232:
 06B0           L229:
 06B0                   .dbline 375
 06B0 6395              inc R22
 06B2           L231:
 06B2                   .dbline 375
 06B2 89E0              ldi R24,9
 06B4 8617              cp R24,R22
 06B6 30F7              brsh L228
 06B8           X55:
 06B8           L225:
 06B8                   .dbline 374
 06B8 4395              inc R20
 06BA           L227:
 06BA                   .dbline 374
 06BA 4230              cpi R20,2
 06BC 08F3              brlo L224
 06BE           X56:
 06BE                   .dbline 378
 06BE           ;                                                                               
 06BE           ;                                                                       memset(resIOJudge,0,sizeof(uchar)*9);
 06BE 89E0              ldi R24,9
 06C0 90E0              ldi R25,0
 06C2 9983              std y+1,R25
 06C4 8883              std y+0,R24
 06C6 2227              clr R18
 06C8 3327              clr R19
 06CA 00E0              ldi R16,<_resIOJudge
 06CC 10E0              ldi R17,>_resIOJudge
 06CE 0E940000          xcall _memset
 06D2                   .dbline 379
 06D2           ;                                                                       OPJudje(0x00,infoMal_student.weibolu,8);
 06D2 88E0              ldi R24,8
 06D4 8883              std y+0,R24
 06D6 20910200          lds R18,_infoMal_student+2
 06DA 0027              clr R16
 06DC 0E940000          xcall _OPJudje
 06E0                   .dbline 380
 06E0           ;                                                                       reaptRes();
 06E0 21DD              xcall _reaptRes
 06E2                   .dbline 382
 06E2           ;                                                                                                                                               
 06E2           ;                                                                       break;  
 06E2 EFC0              xjmp L188
 06E4           L235:
 06E4                   .dbline 384
 06E4           ;                                                                       
 06E4           ;                                       case 0x30:              for(loopa = 0;loopa < 3;loopa ++)                                                                //电饭煲，3个设故点
 06E4 4427              clr R20
 06E6 0FC0              xjmp L239
 06E8           L236:
 06E8                   .dbline 385
 06E8           ;                                                                               if(ITFR_BUF[loopa+2] == '1')dianfanbao_IO('S',loopa+1);
 06E8 80E0              ldi R24,<_UART0_RxBuff_Queue+2
 06EA 90E0              ldi R25,>_UART0_RxBuff_Queue+2
 06EC E42F              mov R30,R20
 06EE FF27              clr R31
 06F0 E80F              add R30,R24
 06F2 F91F              adc R31,R25
 06F4 8081              ldd R24,z+0
 06F6 8133              cpi R24,49
 06F8 29F4              brne L240
 06FA           X57:
 06FA                   .dbline 385
 06FA 242F              mov R18,R20
 06FC 2F5F              subi R18,255    ; addi 1
 06FE 03E5              ldi R16,83
 0700 0E940000          xcall _dianfanbao_IO
 0704           L240:
 0704           L237:
 0704                   .dbline 384
 0704 4395              inc R20
 0706           L239:
 0706                   .dbline 384
 0706 4330              cpi R20,3
 0708 78F3              brlo L236
 070A           X58:
 070A                   .dbline 387
 070A           ;                                                                               
 070A           ;                                                                       OPJudje(infoMal_teacher.dianfanbao,infoMal_student.dianfanbao,5);       
 070A 85E0              ldi R24,5
 070C 8883              std y+0,R24
 070E 20910100          lds R18,_infoMal_student+1
 0712 00910100          lds R16,_infoMal_teacher+1
 0716 0E940000          xcall _OPJudje
 071A                   .dbline 388
 071A           ;                                                                       for(loopa = 0;loopa < 3;loopa ++)                                                       
 071A 4427              clr R20
 071C 1DC0              xjmp L248
 071E           L245:
 071E                   .dbline 389
 071E           ;                                                                           for(loopb = 5;loopb <= 7;loopb ++)                                                                          //5-7
 071E 65E0              ldi R22,5
 0720 17C0              xjmp L252
 0722           L249:
 0722                   .dbline 390
 0722           ;                                                                                   if(resIOJudge[loopa] == loopb)ITFR_PUTS((char*)ITFR_CMD[loopb-1]);
 0722 80E0              ldi R24,<_resIOJudge
 0724 90E0              ldi R25,>_resIOJudge
 0726 E42F              mov R30,R20
 0728 FF27              clr R31
 072A E80F              add R30,R24
 072C F91F              adc R31,R25
 072E 2080              ldd R2,z+0
 0730 2616              cp R2,R22
 0732 69F4              brne L253
 0734           X59:
 0734                   .dbline 390
 0734 80E0              ldi R24,<_ITFR_CMD
 0736 90E0              ldi R25,>_ITFR_CMD
 0738 E62F              mov R30,R22
 073A FF27              clr R31
 073C 3197              sbiw R30,1
 073E EE0F              lsl R30
 0740 FF1F              rol R31
 0742 E80F              add R30,R24
 0744 F91F              adc R31,R25
 0746 0081              ldd R16,z+0
 0748 1181              ldd R17,z+1
 074A 0E940000          xcall _puts0
 074E           L253:
 074E           L250:
 074E                   .dbline 389
 074E 6395              inc R22
 0750           L252:
 0750                   .dbline 389
 0750 87E0              ldi R24,7
 0752 8617              cp R24,R22
 0754 30F7              brsh L249
 0756           X60:
 0756           L246:
 0756                   .dbline 388
 0756 4395              inc R20
 0758           L248:
 0758                   .dbline 388
 0758 4330              cpi R20,3
 075A 08F3              brlo L245
 075C           X61:
 075C                   .dbline 392
 075C           ;                                                                       
 075C           ;                                                                       memset(resIOJudge,0,sizeof(uchar)*9);   
 075C 89E0              ldi R24,9
 075E 90E0              ldi R25,0
 0760 9983              std y+1,R25
 0762 8883              std y+0,R24
 0764 2227              clr R18
 0766 3327              clr R19
 0768 00E0              ldi R16,<_resIOJudge
 076A 10E0              ldi R17,>_resIOJudge
 076C 0E940000          xcall _memset
 0770                   .dbline 393
 0770           ;                                                                       OPJudje(0x00,infoMal_student.dianfanbao,5);
 0770 85E0              ldi R24,5
 0772 8883              std y+0,R24
 0774 20910100          lds R18,_infoMal_student+1
 0778 0027              clr R16
 077A 0E940000          xcall _OPJudje
 077E                   .dbline 394
 077E           ;                                                                       reaptRes();
 077E D2DC              xcall _reaptRes
 0780                   .dbline 396
 0780           ;                               
 0780           ;                                                                       break;
 0780 A0C0              xjmp L188
 0782           L256:
 0782                   .dbline 398
 0782           ;                                                                       
 0782           ;                                       case 0x40:              for(loopa = 0;loopa < 3;loopa ++)                                                                //洗衣机，3个设故点
 0782 4427              clr R20
 0784 0FC0              xjmp L260
 0786           L257:
 0786                   .dbline 399
 0786           ;                                                                               if(ITFR_BUF[loopa+2] == '1')xiyiji_IO('S',loopa+1);
 0786 80E0              ldi R24,<_UART0_RxBuff_Queue+2
 0788 90E0              ldi R25,>_UART0_RxBuff_Queue+2
 078A E42F              mov R30,R20
 078C FF27              clr R31
 078E E80F              add R30,R24
 0790 F91F              adc R31,R25
 0792 8081              ldd R24,z+0
 0794 8133              cpi R24,49
 0796 29F4              brne L261
 0798           X62:
 0798                   .dbline 399
 0798 242F              mov R18,R20
 079A 2F5F              subi R18,255    ; addi 1
 079C 03E5              ldi R16,83
 079E 0E940000          xcall _xiyiji_IO
 07A2           L261:
 07A2           L258:
 07A2                   .dbline 398
 07A2 4395              inc R20
 07A4           L260:
 07A4                   .dbline 398
 07A4 4330              cpi R20,3
 07A6 78F3              brlo L257
 07A8           X63:
 07A8                   .dbline 401
 07A8           ;                                                                               
 07A8           ;                                                                       OPJudje(infoMal_teacher.xiyiji,infoMal_student.xiyiji,12);              
 07A8 8CE0              ldi R24,12
 07AA 8883              std y+0,R24
 07AC 20910400          lds R18,_infoMal_student+4
 07B0 00910400          lds R16,_infoMal_teacher+4
 07B4 0E940000          xcall _OPJudje
 07B8                   .dbline 402
 07B8           ;                                                                       for(loopa = 0;loopa < 3;loopa ++)                                                               
 07B8 4427              clr R20
 07BA 1DC0              xjmp L269
 07BC           L266:
 07BC                   .dbline 403
 07BC           ;                                                                           for(loopb = 12;loopb <= 14;loopb ++)                                                                        //12-14
 07BC 6CE0              ldi R22,12
 07BE 17C0              xjmp L273
 07C0           L270:
 07C0                   .dbline 404
 07C0           ;                                                                                   if(resIOJudge[loopa] == loopb)ITFR_PUTS((char*)ITFR_CMD[loopb-1]);
 07C0 80E0              ldi R24,<_resIOJudge
 07C2 90E0              ldi R25,>_resIOJudge
 07C4 E42F              mov R30,R20
 07C6 FF27              clr R31
 07C8 E80F              add R30,R24
 07CA F91F              adc R31,R25
 07CC 2080              ldd R2,z+0
 07CE 2616              cp R2,R22
 07D0 69F4              brne L274
 07D2           X64:
 07D2                   .dbline 404
 07D2 80E0              ldi R24,<_ITFR_CMD
 07D4 90E0              ldi R25,>_ITFR_CMD
 07D6 E62F              mov R30,R22
 07D8 FF27              clr R31
 07DA 3197              sbiw R30,1
 07DC EE0F              lsl R30
 07DE FF1F              rol R31
 07E0 E80F              add R30,R24
 07E2 F91F              adc R31,R25
 07E4 0081              ldd R16,z+0
 07E6 1181              ldd R17,z+1
 07E8 0E940000          xcall _puts0
 07EC           L274:
 07EC           L271:
 07EC                   .dbline 403
 07EC 6395              inc R22
 07EE           L273:
 07EE                   .dbline 403
 07EE 8EE0              ldi R24,14
 07F0 8617              cp R24,R22
 07F2 30F7              brsh L270
 07F4           X65:
 07F4           L267:
 07F4                   .dbline 402
 07F4 4395              inc R20
 07F6           L269:
 07F6                   .dbline 402
 07F6 4330              cpi R20,3
 07F8 08F3              brlo L266
 07FA           X66:
 07FA                   .dbline 406
 07FA           ;                                                                               
 07FA           ;                                                                       memset(resIOJudge,0,sizeof(uchar)*9);
 07FA 89E0              ldi R24,9
 07FC 90E0              ldi R25,0
 07FE 9983              std y+1,R25
 0800 8883              std y+0,R24
 0802 2227              clr R18
 0804 3327              clr R19
 0806 00E0              ldi R16,<_resIOJudge
 0808 10E0              ldi R17,>_resIOJudge
 080A 0E940000          xcall _memset
 080E                   .dbline 407
 080E           ;                                                                       OPJudje(0x00,infoMal_student.xiyiji,12);
 080E 8CE0              ldi R24,12
 0810 8883              std y+0,R24
 0812 20910400          lds R18,_infoMal_student+4
 0816 0027              clr R16
 0818 0E940000          xcall _OPJudje
 081C                   .dbline 408
 081C           ;                                                                       reaptRes();
 081C 83DC              xcall _reaptRes
 081E                   .dbline 410
 081E           ;                                                                       
 081E           ;                                                                       break;
 081E 51C0              xjmp L188
 0820           L277:
 0820                   .dbline 412
 0820           ;                                                                       
 0820           ;                                       case 0x50:              for(loopa = 0;loopa < 2;loopa ++)                                                                //消毒柜，2个设故点
 0820 4427              clr R20
 0822 0FC0              xjmp L281
 0824           L278:
 0824                   .dbline 413
 0824           ;                                                                               if(ITFR_BUF[loopa+2] == '1')xiaodugui_IO('S',loopa+1);
 0824 80E0              ldi R24,<_UART0_RxBuff_Queue+2
 0826 90E0              ldi R25,>_UART0_RxBuff_Queue+2
 0828 E42F              mov R30,R20
 082A FF27              clr R31
 082C E80F              add R30,R24
 082E F91F              adc R31,R25
 0830 8081              ldd R24,z+0
 0832 8133              cpi R24,49
 0834 29F4              brne L282
 0836           X67:
 0836                   .dbline 413
 0836 242F              mov R18,R20
 0838 2F5F              subi R18,255    ; addi 1
 083A 03E5              ldi R16,83
 083C 0E940000          xcall _xiaodugui_IO
 0840           L282:
 0840           L279:
 0840                   .dbline 412
 0840 4395              inc R20
 0842           L281:
 0842                   .dbline 412
 0842 4230              cpi R20,2
 0844 78F3              brlo L278
 0846           X68:
 0846                   .dbline 415
 0846           ;                                                                               
 0846           ;                                                                       OPJudje(infoMal_teacher.xiaodugui,infoMal_student.xiaodugui,10);                
 0846 8AE0              ldi R24,10
 0848 8883              std y+0,R24
 084A 20910300          lds R18,_infoMal_student+3
 084E 00910300          lds R16,_infoMal_teacher+3
 0852 0E940000          xcall _OPJudje
 0856                   .dbline 416
 0856           ;                                                                       for(loopa = 0;loopa < 2;loopa ++)                               
 0856 4427              clr R20
 0858 1DC0              xjmp L290
 085A           L287:
 085A                   .dbline 417
 085A           ;                                                                               for(loopb = 10;loopb <= 11;loopb ++)                                                                    //10-11
 085A 6AE0              ldi R22,10
 085C 17C0              xjmp L294
 085E           L291:
 085E                   .dbline 418
 085E           ;                                                                                       if(resIOJudge[loopa] == loopb)ITFR_PUTS((char*)ITFR_CMD[loopb-1]);
 085E 80E0              ldi R24,<_resIOJudge
 0860 90E0              ldi R25,>_resIOJudge
 0862 E42F              mov R30,R20
 0864 FF27              clr R31
 0866 E80F              add R30,R24
 0868 F91F              adc R31,R25
 086A 2080              ldd R2,z+0
 086C 2616              cp R2,R22
 086E 69F4              brne L295
 0870           X69:
 0870                   .dbline 418
 0870 80E0              ldi R24,<_ITFR_CMD
 0872 90E0              ldi R25,>_ITFR_CMD
 0874 E62F              mov R30,R22
 0876 FF27              clr R31
 0878 3197              sbiw R30,1
 087A EE0F              lsl R30
 087C FF1F              rol R31
 087E E80F              add R30,R24
 0880 F91F              adc R31,R25
 0882 0081              ldd R16,z+0
 0884 1181              ldd R17,z+1
 0886 0E940000          xcall _puts0
 088A           L295:
 088A           L292:
 088A                   .dbline 417
 088A 6395              inc R22
 088C           L294:
 088C                   .dbline 417
 088C 8BE0              ldi R24,11
 088E 8617              cp R24,R22
 0890 30F7              brsh L291
 0892           X70:
 0892           L288:
 0892                   .dbline 416
 0892 4395              inc R20
 0894           L290:
 0894                   .dbline 416
 0894 4230              cpi R20,2
 0896 08F3              brlo L287
 0898           X71:
 0898                   .dbline 420
 0898           ;                                                                               
 0898           ;                                                                       memset(resIOJudge,0,sizeof(uchar)*9);
 0898 89E0              ldi R24,9
 089A 90E0              ldi R25,0
 089C 9983              std y+1,R25
 089E 8883              std y+0,R24
 08A0 2227              clr R18
 08A2 3327              clr R19
 08A4 00E0              ldi R16,<_resIOJudge
 08A6 10E0              ldi R17,>_resIOJudge
 08A8 0E940000          xcall _memset
 08AC                   .dbline 421
 08AC           ;                                                                       OPJudje(0x00,infoMal_student.xiaodugui,10);
 08AC 8AE0              ldi R24,10
 08AE 8883              std y+0,R24
 08B0 20910300          lds R18,_infoMal_student+3
 08B4 0027              clr R16
 08B6 0E940000          xcall _OPJudje
 08BA                   .dbline 422
 08BA           ;                                                                       reaptRes();
 08BA 34DC              xcall _reaptRes
 08BC                   .dbline 432
 08BC           ; 
 08BC           ;                                                                       //ITFR_PUTS("Result xiaodugui hand up");                //测试输出
 08BC           ;                                                                       //putchar1(resIOJudge[0]+0x30);                                 //测试比较结果输出
 08BC           ;                                                                       //putchar1(resIOJudge[1]+0x30);
 08BC           ;                                                                       //putchar1(resIOJudge[2]+0x30);
 08BC           ;                                                                       //putchar1(resIOJudge[3]+0x30);
 08BC           ;                                                                       //putchar1(resIOJudge[6]+0x30);
 08BC           ;                                                                       //putchar1(resIOJudge[7]+0x30);
 08BC           ;                                                                       //putchar1(resIOJudge[8]+0x30);                                                                         
 08BC           ;                                                                       break;
 08BC 02C0              xjmp L188
 08BE           L298:
 08BE                   .dbline 434
 08BE           ;                                                                       
 08BE           ;                                       case 0x0f:              IOReinstate();                                                                  //结果提交完成，设备复位后重新开放选择界面
 08BE 0E940000          xcall _IOReinstate
 08C2                   .dbline 442
 08C2           ;                                                                       //ITFR_PUTS("device_select.dfs.txt=\"0\"");             //冰封所有选项，等待老师重新设故
 08C2           ;                                                                       //ITFR_PUTS("device_select.wbl.txt=\"0\"");
 08C2           ;                                                                       //ITFR_PUTS("device_select.dfb.txt=\"0\"");
 08C2           ;                                                                       //ITFR_PUTS("device_select.xyj.txt=\"0\"");
 08C2           ;                                                                       //ITFR_PUTS("device_select.xdg.txt=\"0\"");                                                             
 08C2           ;                                                                       //ITFR_PUTS("page device_select");                              //开放设故选择界面
 08C2           ;                                                                       
 08C2           ;                                       default:                break;
 08C2           L188:
 08C2                   .dbline 445
 08C2           ;                        }
 08C2           ;                        
 08C2           ;                        if(!strcmp(userMe_temp.userID,userMe.userID) && !strcmp(userMe_temp.password,userMe.password)){        //用户名及密码验证
 08C2 20E0              ldi R18,<_userMe
 08C4 30E0              ldi R19,>_userMe
 08C6 00E0              ldi R16,<_userMe_temp
 08C8 10E0              ldi R17,>_userMe_temp
 08CA 0E940000          xcall _strcmp
 08CE 0030              cpi R16,0
 08D0 0107              cpc R16,R17
 08D2 81F4              brne L304
 08D4           X72:
 08D4 20E0              ldi R18,<_userMe+9
 08D6 30E0              ldi R19,>_userMe+9
 08D8 00E0              ldi R16,<_userMe_temp+9
 08DA 10E0              ldi R17,>_userMe_temp+9
 08DC 0E940000          xcall _strcmp
 08E0 0030              cpi R16,0
 08E2 0107              cpc R16,R17
 08E4 39F4              brne L304
 08E6           X73:
 08E6                   .dbline 445
 08E6                   .dbline 447
 08E6           ;                                       
 08E6           ;                                       ITFR_PUTS("page device_select");        //开放设故选择界面
 08E6 00E0              ldi R16,<L110
 08E8 10E0              ldi R17,>L110
 08EA 0E940000          xcall _puts0
 08EE                   .dbline 448
 08EE           ;                                       UI_pt = 0x02;
 08EE 82E0              ldi R24,2
 08F0 80936A00          sts _UI_pt,R24
 08F4                   .dbline 449
 08F4           ;                        }
 08F4           L304:
 08F4                   .dbline 450
 08F4           ;                        memset(ITFR_BUF,0,sizeof(uchar)*UART1_RX_BUFFER_SIZE);           //屏幕处理缓存清空
 08F4 8EE1              ldi R24,30
 08F6 90E0              ldi R25,0
 08F8 9983              std y+1,R25
 08FA 8883              std y+0,R24
 08FC 2227              clr R18
 08FE 3327              clr R19
 0900 00E0              ldi R16,<_UART0_RxBuff_Queue
 0902 10E0              ldi R17,>_UART0_RxBuff_Queue
 0904 0E940000          xcall _memset
 0908                   .dbline 451
 0908           ;                        memset(userMe_temp.password,0,sizeof(uchar)*9);                          //用户输入密码清空
 0908 89E0              ldi R24,9
 090A 90E0              ldi R25,0
 090C 9983              std y+1,R25
 090E 8883              std y+0,R24
 0910 2227              clr R18
 0912 3327              clr R19
 0914 00E0              ldi R16,<_userMe_temp+9
 0916 10E0              ldi R17,>_userMe_temp+9
 0918 0E940000          xcall _memset
 091C                   .dbline 452
 091C           ;                        memset(resIOJudge,0,sizeof(uchar)*9);                                            //学生提交与老师设故仲裁结果清空
 091C 89E0              ldi R24,9
 091E 90E0              ldi R25,0
 0920 9983              std y+1,R25
 0922 8883              std y+0,R24
 0924 2227              clr R18
 0926 3327              clr R19
 0928 00E0              ldi R16,<_resIOJudge
 092A 10E0              ldi R17,>_resIOJudge
 092C 0E940000          xcall _memset
 0930                   .dbline 453
 0930           ;               }
 0930           L185:
 0930                   .dbline 456
 0930           ;               
 0930           ;         /*********************************************PROCESSING_HEARTBEAT*******************************************/
 0930           ;               if(heartBeat_A > 300000){                                       //周期发送心跳包
 0930 80EE              ldi R24,224
 0932 93E9              ldi R25,147
 0934 A4E0              ldi R26,4
 0936 B0E0              ldi R27,0
 0938 2E80              ldd R2,y+6
 093A 3F80              ldd R3,y+7
 093C 4884              ldd R4,y+8
 093E 5984              ldd R5,y+9
 0940 8215              cp R24,R2
 0942 9305              cpc R25,R3
 0944 A405              cpc R26,R4
 0946 B505              cpc R27,R5
 0948 50F4              brsh L309
 094A           X74:
 094A                   .dbline 456
 094A                   .dbline 458
 094A           ;               
 094A           ;                       heartBeat_A = 0;           
 094A 80E0              ldi R24,0
 094C 8E83              std y+6+0,R24
 094E 8F83              std y+6+1,R24
 0950 8887              std y+6+2,R24
 0952 8987              std y+6+3,R24
 0954                   .dbline 459
 0954           ;                       WIFI_PUTS((char*)cntConfirm);
 0954 00E0              ldi R16,<_cntConfirm
 0956 10E0              ldi R17,>_cntConfirm
 0958 0E940000          xcall _puts1
 095C                   .dbline 460
 095C           ;               }else heartBeat_A ++;
 095C 10C0              xjmp L310
 095E           L309:
 095E                   .dbline 460
 095E 81E0              ldi R24,1
 0960 90E0              ldi R25,0
 0962 A0E0              ldi R26,0
 0964 B0E0              ldi R27,0
 0966 2E80              ldd R2,y+6
 0968 3F80              ldd R3,y+7
 096A 4884              ldd R4,y+8
 096C 5984              ldd R5,y+9
 096E 280E              add R2,R24
 0970 391E              adc R3,R25
 0972 4A1E              adc R4,R26
 0974 5B1E              adc R5,R27
 0976 2E82              std y+6,R2
 0978 3F82              std y+7,R3
 097A 4886              std y+8,R4
 097C 5986              std y+9,R5
 097E           L310:
 097E                   .dbline 462
 097E           ;               
 097E           ;               if(heartBeat_B > 1000000){                                      //周期接收心跳回复   发三次有一次收到就行
 097E 80E4              ldi R24,64
 0980 92E4              ldi R25,66
 0982 AFE0              ldi R26,15
 0984 B0E0              ldi R27,0
 0986 2A80              ldd R2,y+2
 0988 3B80              ldd R3,y+3
 098A 4C80              ldd R4,y+4
 098C 5D80              ldd R5,y+5
 098E 8215              cp R24,R2
 0990 9305              cpc R25,R3
 0992 A405              cpc R26,R4
 0994 B505              cpc R27,R5
 0996 38F4              brsh L311
 0998           X75:
 0998                   .dbline 462
 0998                   .dbline 464
 0998           ;                       
 0998           ;                       heartBeat_B = 0;
 0998 80E0              ldi R24,0
 099A 8A83              std y+2+0,R24
 099C 8B83              std y+2+1,R24
 099E 8C83              std y+2+2,R24
 09A0 8D83              std y+2+3,R24
 09A2                   .dbline 465
 09A2           ;                       wifiReconnect();
 09A2 4FDC              xcall _wifiReconnect
 09A4                   .dbline 466
 09A4           ;               }else heartBeat_B ++;
 09A4 10C0              xjmp L312
 09A6           L311:
 09A6                   .dbline 466
 09A6 81E0              ldi R24,1
 09A8 90E0              ldi R25,0
 09AA A0E0              ldi R26,0
 09AC B0E0              ldi R27,0
 09AE 2A80              ldd R2,y+2
 09B0 3B80              ldd R3,y+3
 09B2 4C80              ldd R4,y+4
 09B4 5D80              ldd R5,y+5
 09B6 280E              add R2,R24
 09B8 391E              adc R3,R25
 09BA 4A1E              adc R4,R26
 09BC 5B1E              adc R5,R27
 09BE 2A82              std y+2,R2
 09C0 3B82              std y+3,R3
 09C2 4C82              std y+4,R4
 09C4 5D82              std y+5,R5
 09C6           L312:
 09C6                   .dbline 467
 09C6           ;       }
 09C6           L113:
 09C6                   .dbline 260
 09C6 86CC              xjmp L112
 09C8           X76:
 09C8                   .dbline -2
 09C8           L111:
 09C8                   .dbline 0 ; func end
 09C8 2A96              adiw R28,10
 09CA 0C940000          xjmp pop_xgsetF000
 09CE                   .dbsym l heartBeat_A 6 l
 09CE                   .dbsym l heartBeat_B 2 l
 09CE                   .dbsym r loopa 20 c
 09CE                   .dbsym r loopb 22 c
 09CE                   .dbend
 09CE                   .dbfunc e main _main fV
                        .even
 09CE           _main::
 09CE                   .dbline -1
 09CE                   .dbline 470
 09CE           ; }
 09CE           ; 
 09CE           ; void main(void){
 09CE                   .dbline 474
 09CE           ; 
 09CE           ;       
 09CE           ;       
 09CE           ;       bspInit();
 09CE CEDB              xcall _bspInit
 09D0                   .dbline 480
 09D0           ;       
 09D0           ;       //WIFI_PUTS("i'm WIFI test start!!!");
 09D0           ;       //ITFR_PUTS("i'm ITFR test start!!!");
 09D0           ;       //IO_test();
 09D0           ;       
 09D0           ;       thread_main();
 09D0                   .dbline -2
 09D0           L313:
 09D0                   .dbline 0 ; func end
 09D0 73CC              xjmp _thread_main
 09D2                   .dbend
                        .area data(ram, con, rel)
 006B                   .dbfile E:\My_GTAProject\塔城设故板\Software\user_main.c
 006B           L184:
 006B                   .blkb 26
                        .area idata
 006B 6465766963655F73656C6563742E7879  .byte 'd,'e,'v,'i,'c,'e,95,'s,'e,'l,'e,'c,'t,46,'x,'y
 007B 6A2E7478743D22312200      .byte 'j,46,'t,'x,'t,61,34,49,34,0
                        .area data(ram, con, rel)
 0085                   .dbfile E:\My_GTAProject\塔城设故板\Software\user_main.c
 0085           L180:
 0085                   .blkb 26
                        .area idata
 0085 6465766963655F73656C6563742E7864  .byte 'd,'e,'v,'i,'c,'e,95,'s,'e,'l,'e,'c,'t,46,'x,'d
 0095 672E7478743D22312200      .byte 'g,46,'t,'x,'t,61,34,49,34,0
                        .area data(ram, con, rel)
 009F                   .dbfile E:\My_GTAProject\塔城设故板\Software\user_main.c
 009F           L176:
 009F                   .blkb 26
                        .area idata
 009F 6465766963655F73656C6563742E7762  .byte 'd,'e,'v,'i,'c,'e,95,'s,'e,'l,'e,'c,'t,46,'w,'b
 00AF 6C2E7478743D22312200      .byte 'l,46,'t,'x,'t,61,34,49,34,0
                        .area data(ram, con, rel)
 00B9                   .dbfile E:\My_GTAProject\塔城设故板\Software\user_main.c
 00B9           L172:
 00B9                   .blkb 26
                        .area idata
 00B9 6465766963655F73656C6563742E6466  .byte 'd,'e,'v,'i,'c,'e,95,'s,'e,'l,'e,'c,'t,46,'d,'f
 00C9 622E7478743D22312200      .byte 'b,46,'t,'x,'t,61,34,49,34,0
                        .area data(ram, con, rel)
 00D3                   .dbfile E:\My_GTAProject\塔城设故板\Software\user_main.c
 00D3           L168:
 00D3                   .blkb 26
                        .area idata
 00D3 6465766963655F73656C6563742E6466  .byte 'd,'e,'v,'i,'c,'e,95,'s,'e,'l,'e,'c,'t,46,'d,'f
 00E3 732E7478743D22312200      .byte 's,46,'t,'x,'t,61,34,49,34,0
                        .area data(ram, con, rel)
 00ED                   .dbfile E:\My_GTAProject\塔城设故板\Software\user_main.c
 00ED           L137:
 00ED                   .blkb 26
                        .area idata
 00ED 6465766963655F73656C6563742E7879  .byte 'd,'e,'v,'i,'c,'e,95,'s,'e,'l,'e,'c,'t,46,'x,'y
 00FD 6A2E7478743D22302200      .byte 'j,46,'t,'x,'t,61,34,48,34,0
                        .area data(ram, con, rel)
 0107                   .dbfile E:\My_GTAProject\塔城设故板\Software\user_main.c
 0107           L136:
 0107                   .blkb 26
                        .area idata
 0107 6465766963655F73656C6563742E7864  .byte 'd,'e,'v,'i,'c,'e,95,'s,'e,'l,'e,'c,'t,46,'x,'d
 0117 672E7478743D22302200      .byte 'g,46,'t,'x,'t,61,34,48,34,0
                        .area data(ram, con, rel)
 0121                   .dbfile E:\My_GTAProject\塔城设故板\Software\user_main.c
 0121           L135:
 0121                   .blkb 26
                        .area idata
 0121 6465766963655F73656C6563742E7762  .byte 'd,'e,'v,'i,'c,'e,95,'s,'e,'l,'e,'c,'t,46,'w,'b
 0131 6C2E7478743D22302200      .byte 'l,46,'t,'x,'t,61,34,48,34,0
                        .area data(ram, con, rel)
 013B                   .dbfile E:\My_GTAProject\塔城设故板\Software\user_main.c
 013B           L134:
 013B                   .blkb 26
                        .area idata
 013B 6465766963655F73656C6563742E6466  .byte 'd,'e,'v,'i,'c,'e,95,'s,'e,'l,'e,'c,'t,46,'d,'f
 014B 622E7478743D22302200      .byte 'b,46,'t,'x,'t,61,34,48,34,0
                        .area data(ram, con, rel)
 0155                   .dbfile E:\My_GTAProject\塔城设故板\Software\user_main.c
 0155           L133:
 0155                   .blkb 26
                        .area idata
 0155 6465766963655F73656C6563742E6466  .byte 'd,'e,'v,'i,'c,'e,95,'s,'e,'l,'e,'c,'t,46,'d,'f
 0165 732E7478743D22302200      .byte 's,46,'t,'x,'t,61,34,48,34,0
                        .area data(ram, con, rel)
 016F                   .dbfile E:\My_GTAProject\塔城设故板\Software\user_main.c
 016F           L110:
 016F                   .blkb 19
                        .area idata
 016F 70616765206465766963655F73656C65  .byte 'p,'a,'g,'e,32,'d,'e,'v,'i,'c,'e,95,'s,'e,'l,'e
 017F 637400            .byte 'c,'t,0
                        .area data(ram, con, rel)
 0182                   .dbfile E:\My_GTAProject\塔城设故板\Software\user_main.c
 0182           L99:
 0182                   .blkb 15
                        .area idata
 0182 70616765207265636F6E6E65637400    .byte 'p,'a,'g,'e,32,'r,'e,'c,'o,'n,'n,'e,'c,'t,0
                        .area data(ram, con, rel)
 0191                   .dbfile E:\My_GTAProject\塔城设故板\Software\user_main.c
 0191           L97:
 0191                   .blkb 10
                        .area idata
 0191 70616765206D61696E00      .byte 'p,'a,'g,'e,32,'m,'a,'i,'n,0
                        .area data(ram, con, rel)
 019B                   .dbfile E:\My_GTAProject\塔城设故板\Software\user_main.c
 019B           L80:
 019B                   .blkb 16
                        .area idata
 019B 7061676520636F6E6E656374696E6700  .byte 'p,'a,'g,'e,32,'c,'o,'n,'n,'e,'c,'t,'i,'n,'g,0
                        .area data(ram, con, rel)
 01AB                   .dbfile E:\My_GTAProject\塔城设故板\Software\user_main.c
 01AB           L34:
 01AB                   .blkb 12
                        .area idata
 01AB 61742B7265636F6E6E3D3100  .byte 'a,'t,43,'r,'e,'c,'o,'n,'n,61,49,0
                        .area data(ram, con, rel)
 01B7                   .dbfile E:\My_GTAProject\塔城设故板\Software\user_main.c
 01B7           L33:
 01B7                   .blkb 16
                        .area idata
 01B7 61742B6E65745F636F6D6D69743D3100  .byte 'a,'t,43,'n,'e,'t,95,'c,'o,'m,'m,'i,'t,61,49,0
                        .area data(ram, con, rel)
 01C7                   .dbfile E:\My_GTAProject\塔城设故板\Software\user_main.c
 01C7           L32:
 01C7                   .blkb 22
                        .area idata
 01C7 61742B756172747061636B74696D656F  .byte 'a,'t,43,'u,'a,'r,'t,'p,'a,'c,'k,'t,'i,'m,'e,'o
 01D7 75743D313000      .byte 'u,'t,61,49,48,0
                        .area data(ram, con, rel)
 01DD                   .dbfile E:\My_GTAProject\塔城设故板\Software\user_main.c
 01DD           L31:
 01DD                   .blkb 18
                        .area idata
 01DD 61742B756172747061636B6C656E3D36  .byte 'a,'t,43,'u,'a,'r,'t,'p,'a,'c,'k,'l,'e,'n,61,54
 01ED 3400              .byte 52,0
                        .area data(ram, con, rel)
 01EF                   .dbfile E:\My_GTAProject\塔城设故板\Software\user_main.c
 01EF           L30:
 01EF                   .blkb 19
                        .area idata
 01EF 61742B756172743D393630302C382C6E  .byte 'a,'t,43,'u,'a,'r,'t,61,57,54,48,48,44,56,44,'n
 01FF 2C3100            .byte 44,49,0
                        .area data(ram, con, rel)
 0202                   .dbfile E:\My_GTAProject\塔城设故板\Software\user_main.c
 0202           L29:
 0202                   .blkb 13
                        .area idata
 0202 61742B74696D656F75743D3000        .byte 'a,'t,43,'t,'i,'m,'e,'o,'u,'t,61,48,0
                        .area data(ram, con, rel)
 020F                   .dbfile E:\My_GTAProject\塔城设故板\Software\user_main.c
 020F           L28:
 020F                   .blkb 15
                        .area idata
 020F 61742B434C706F72743D3132333400    .byte 'a,'t,43,'C,'L,'p,'o,'r,'t,61,49,50,51,52,0
                        .area data(ram, con, rel)
 021E                   .dbfile E:\My_GTAProject\塔城设故板\Software\user_main.c
 021E           L27:
 021E                   .blkb 19
                        .area idata
 021E 61742B72656D6F7465706F72743D3830  .byte 'a,'t,43,'r,'e,'m,'o,'t,'e,'p,'o,'r,'t,61,56,48
 022E 383800            .byte 56,56,0
                        .area data(ram, con, rel)
 0231                   .dbfile E:\My_GTAProject\塔城设故板\Software\user_main.c
 0231           L26:
 0231                   .blkb 26
                        .area idata
 0231 61742B72656D6F746569703D3139322E  .byte 'a,'t,43,'r,'e,'m,'o,'t,'e,'i,'p,61,49,57,50,46
 0241 3136382E302E31303300      .byte 49,54,56,46,48,46,49,48,51,0
                        .area data(ram, con, rel)
 024B                   .dbfile E:\My_GTAProject\塔城设故板\Software\user_main.c
 024B           L25:
 024B                   .blkb 15
                        .area idata
 024B 61742B6D6F64653D636C69656E7400    .byte 'a,'t,43,'m,'o,'d,'e,61,'c,'l,'i,'e,'n,'t,0
                        .area data(ram, con, rel)
 025A                   .dbfile E:\My_GTAProject\塔城设故板\Software\user_main.c
 025A           L24:
 025A                   .blkb 17
                        .area idata
 025A 61742B72656D6F746570726F3D746370  .byte 'a,'t,43,'r,'e,'m,'o,'t,'e,'p,'r,'o,61,'t,'c,'p
 026A 00                .byte 0
                        .area data(ram, con, rel)
 026B                   .dbfile E:\My_GTAProject\塔城设故板\Software\user_main.c
 026B           L23:
 026B                   .blkb 31
                        .area idata
 026B 61742B6E65745F646E733D3139322E31  .byte 'a,'t,43,'n,'e,'t,95,'d,'n,'s,61,49,57,50,46,49
 027B 36382E302E312C302E302E302E3000    .byte 54,56,46,48,46,49,44,48,46,48,46,48,46,48,0
                        .area data(ram, con, rel)
 028A                   .dbfile E:\My_GTAProject\塔城设故板\Software\user_main.c
 028A           L22:
 028A                   .blkb 50
                        .area idata
 028A 61742B6E65745F69703D3139322E3136  .byte 'a,'t,43,'n,'e,'t,95,'i,'p,61,49,57,50,46,49,54
 029A 382E302E3231362C3235352E3235352E  .byte 56,46,48,46,50,49,54,44,50,53,53,46,50,53,53,46
 02AA 3235352E302C3139322E3136382E302E  .byte 50,53,53,46,48,44,49,57,50,46,49,54,56,46,48,46
 02BA 3100              .byte 49,0
                        .area data(ram, con, rel)
 02BC                   .dbfile E:\My_GTAProject\塔城设故板\Software\user_main.c
 02BC           L21:
 02BC                   .blkb 11
                        .area idata
 02BC 61742B64686370633D3000    .byte 'a,'t,43,'d,'h,'c,'p,'c,61,48,0
                        .area data(ram, con, rel)
 02C7                   .dbfile E:\My_GTAProject\塔城设故板\Software\user_main.c
 02C7           L20:
 02C7                   .blkb 36
                        .area idata
 02C7 61742B776966695F636F6E663D475441  .byte 'a,'t,43,'w,'i,'f,'i,95,'c,'o,'n,'f,61,'G,'T,'A
 02D7 323031372C6175746F2C677461313134  .byte 50,48,49,55,44,'a,'u,'t,'o,44,'g,'t,'a,49,49,52
 02E7 36303500          .byte 54,48,53,0
                        .area data(ram, con, rel)
 02EB                   .dbfile E:\My_GTAProject\塔城设故板\Software\user_main.c
 02EB           L19:
 02EB                   .blkb 11
                        .area idata
 02EB 61742B64686370643D3000    .byte 'a,'t,43,'d,'h,'c,'p,'d,61,48,0
                        .area data(ram, con, rel)
 02F6                   .dbfile E:\My_GTAProject\塔城设故板\Software\user_main.c
 02F6           L18:
 02F6                   .blkb 13
                        .area idata
 02F6 61742B6E65746D6F64653D3200        .byte 'a,'t,43,'n,'e,'t,'m,'o,'d,'e,61,50,0
                        .area data(ram, con, rel)
 0303                   .dbfile E:\My_GTAProject\塔城设故板\Software\user_main.c
 0303           L17:
 0303                   .blkb 28
                        .area idata
 0303 7265735F786979696A692E78796A5F72  .byte 'r,'e,'s,95,'x,'i,'y,'i,'j,'i,46,'x,'y,'j,95,'r
 0313 6573332E7478743D22302200  .byte 'e,'s,51,46,'t,'x,'t,61,34,48,34,0
                        .area data(ram, con, rel)
 031F                   .dbfile E:\My_GTAProject\塔城设故板\Software\user_main.c
 031F           L16:
 031F                   .blkb 28
                        .area idata
 031F 7265735F786979696A692E78796A5F72  .byte 'r,'e,'s,95,'x,'i,'y,'i,'j,'i,46,'x,'y,'j,95,'r
 032F 6573322E7478743D22302200  .byte 'e,'s,50,46,'t,'x,'t,61,34,48,34,0
                        .area data(ram, con, rel)
 033B                   .dbfile E:\My_GTAProject\塔城设故板\Software\user_main.c
 033B           L15:
 033B                   .blkb 28
                        .area idata
 033B 7265735F786979696A692E78796A5F72  .byte 'r,'e,'s,95,'x,'i,'y,'i,'j,'i,46,'x,'y,'j,95,'r
 034B 6573312E7478743D22302200  .byte 'e,'s,49,46,'t,'x,'t,61,34,48,34,0
                        .area data(ram, con, rel)
 0357                   .dbfile E:\My_GTAProject\塔城设故板\Software\user_main.c
 0357           L14:
 0357                   .blkb 31
                        .area idata
 0357 7265735F7869616F64756775692E7864  .byte 'r,'e,'s,95,'x,'i,'a,'o,'d,'u,'g,'u,'i,46,'x,'d
 0367 675F726573322E7478743D22302200    .byte 'g,95,'r,'e,'s,50,46,'t,'x,'t,61,34,48,34,0
                        .area data(ram, con, rel)
 0376                   .dbfile E:\My_GTAProject\塔城设故板\Software\user_main.c
 0376           L13:
 0376                   .blkb 31
                        .area idata
 0376 7265735F7869616F64756775692E7864  .byte 'r,'e,'s,95,'x,'i,'a,'o,'d,'u,'g,'u,'i,46,'x,'d
 0386 675F726573312E7478743D22302200    .byte 'g,95,'r,'e,'s,49,46,'t,'x,'t,61,34,48,34,0
                        .area data(ram, con, rel)
 0395                   .dbfile E:\My_GTAProject\塔城设故板\Software\user_main.c
 0395           L12:
 0395                   .blkb 29
                        .area idata
 0395 7265735F776569626F6C752E77626C5F  .byte 'r,'e,'s,95,'w,'e,'i,'b,'o,'l,'u,46,'w,'b,'l,95
 03A5 726573322E7478743D22302200        .byte 'r,'e,'s,50,46,'t,'x,'t,61,34,48,34,0
                        .area data(ram, con, rel)
 03B2                   .dbfile E:\My_GTAProject\塔城设故板\Software\user_main.c
 03B2           L11:
 03B2                   .blkb 29
                        .area idata
 03B2 7265735F776569626F6C752E77626C5F  .byte 'r,'e,'s,95,'w,'e,'i,'b,'o,'l,'u,46,'w,'b,'l,95
 03C2 726573312E7478743D22302200        .byte 'r,'e,'s,49,46,'t,'x,'t,61,34,48,34,0
                        .area data(ram, con, rel)
 03CF                   .dbfile E:\My_GTAProject\塔城设故板\Software\user_main.c
 03CF           L10:
 03CF                   .blkb 32
                        .area idata
 03CF 7265735F6469616E66616E62616F2E64  .byte 'r,'e,'s,95,'d,'i,'a,'n,'f,'a,'n,'b,'a,'o,46,'d
 03DF 66625F726573332E7478743D22302200  .byte 'f,'b,95,'r,'e,'s,51,46,'t,'x,'t,61,34,48,34,0
                        .area data(ram, con, rel)
 03EF                   .dbfile E:\My_GTAProject\塔城设故板\Software\user_main.c
 03EF           L9:
 03EF                   .blkb 32
                        .area idata
 03EF 7265735F6469616E66616E62616F2E64  .byte 'r,'e,'s,95,'d,'i,'a,'n,'f,'a,'n,'b,'a,'o,46,'d
 03FF 66625F726573322E7478743D22302200  .byte 'f,'b,95,'r,'e,'s,50,46,'t,'x,'t,61,34,48,34,0
                        .area data(ram, con, rel)
 040F                   .dbfile E:\My_GTAProject\塔城设故板\Software\user_main.c
 040F           L8:
 040F                   .blkb 32
                        .area idata
 040F 7265735F6469616E66616E62616F2E64  .byte 'r,'e,'s,95,'d,'i,'a,'n,'f,'a,'n,'b,'a,'o,46,'d
 041F 66625F726573312E7478743D22302200  .byte 'f,'b,95,'r,'e,'s,49,46,'t,'x,'t,61,34,48,34,0
                        .area data(ram, con, rel)
 042F                   .dbfile E:\My_GTAProject\塔城设故板\Software\user_main.c
 042F           L7:
 042F                   .blkb 29
                        .area idata
 042F 7265735F66656E677368616E2E66735F  .byte 'r,'e,'s,95,'f,'e,'n,'g,'s,'h,'a,'n,46,'f,'s,95
 043F 726573342E7478743D22302200        .byte 'r,'e,'s,52,46,'t,'x,'t,61,34,48,34,0
                        .area data(ram, con, rel)
 044C                   .dbfile E:\My_GTAProject\塔城设故板\Software\user_main.c
 044C           L6:
 044C                   .blkb 29
                        .area idata
 044C 7265735F66656E677368616E2E66735F  .byte 'r,'e,'s,95,'f,'e,'n,'g,'s,'h,'a,'n,46,'f,'s,95
 045C 726573332E7478743D22302200        .byte 'r,'e,'s,51,46,'t,'x,'t,61,34,48,34,0
                        .area data(ram, con, rel)
 0469                   .dbfile E:\My_GTAProject\塔城设故板\Software\user_main.c
 0469           L5:
 0469                   .blkb 29
                        .area idata
 0469 7265735F66656E677368616E2E66735F  .byte 'r,'e,'s,95,'f,'e,'n,'g,'s,'h,'a,'n,46,'f,'s,95
 0479 726573322E7478743D22302200        .byte 'r,'e,'s,50,46,'t,'x,'t,61,34,48,34,0
                        .area data(ram, con, rel)
 0486                   .dbfile E:\My_GTAProject\塔城设故板\Software\user_main.c
 0486           L4:
 0486                   .blkb 29
                        .area idata
 0486 7265735F66656E677368616E2E66735F  .byte 'r,'e,'s,95,'f,'e,'n,'g,'s,'h,'a,'n,46,'f,'s,95
 0496 726573312E7478743D22302200        .byte 'r,'e,'s,49,46,'t,'x,'t,61,34,48,34,0
                        .area data(ram, con, rel)
 04A3                   .dbfile E:\My_GTAProject\塔城设故板\Software\user_main.c
 04A3           ; 
 04A3           ; }
